Certificate:
    Data:
        Version: 3 (0x2)
        Serial Number: 1 (0x1)
        Signature Algorithm: sha256WithRSAEncryption
        Issuer: C=DE, ST=Hamburg, O=haw-hamburg, OU=SVS, CN=Sub-CA-24
        Validity
            Not Before: May 30 18:03:05 2022 GMT
            Not After : May 27 18:03:05 2023 GMT
        Subject: C=DE, ST=Hamburg, O=haw-hamburg, OU=SVS, CN=svs24.ful.informatik.haw-hamburg.de
        Subject Public Key Info:
            Public Key Algorithm: rsaEncryption
                RSA Public-Key: (2048 bit)
                Modulus:
                    00:d0:28:3d:10:48:2a:74:cc:6f:a9:34:73:ad:62:
                    07:d9:5b:6a:0c:70:10:a5:48:d5:a8:03:db:b3:86:
                    96:e6:9e:c9:4b:90:87:dc:1e:39:3f:89:68:a1:fe:
                    18:3e:4b:5c:98:a7:96:28:67:83:d7:5a:ac:f3:35:
                    39:d6:22:c7:e5:74:e6:e6:c8:de:33:37:76:0b:9a:
                    9f:65:c1:51:a7:27:0b:11:e2:23:33:aa:a2:fa:10:
                    e1:fe:1b:3b:24:ed:37:d2:3f:57:20:2b:78:5c:8b:
                    a8:27:ca:3b:15:14:38:31:6c:92:b4:b9:7f:51:16:
                    3a:dd:7f:3b:f0:de:17:c3:8d:c5:b0:45:72:2c:b5:
                    b1:8b:81:d3:1b:c6:cf:a0:02:cd:16:95:7c:7f:a2:
                    36:77:4f:7d:62:9f:40:5b:6a:d2:04:5d:2a:51:a0:
                    9f:25:1d:6a:66:1e:6e:95:b8:51:35:c1:cd:dc:2f:
                    34:e8:4f:a1:67:4e:90:cb:26:80:4d:b2:34:1e:f7:
                    6c:b3:86:8a:8e:d7:b5:a3:50:2a:23:2a:22:99:ed:
                    4d:e4:29:0d:68:66:16:43:e6:b4:7b:85:09:0e:8d:
                    5b:a9:10:85:0d:c9:bb:3d:29:97:1a:0d:8c:5a:a7:
                    97:fb:3b:81:a6:32:10:cd:a2:3d:c2:25:6c:dd:f7:
                    60:a5
                Exponent: 65537 (0x10001)
        X509v3 extensions:
            X509v3 Key Usage: critical
                Digital Signature, Key Encipherment
            X509v3 Basic Constraints: 
                CA:FALSE
            X509v3 Extended Key Usage: 
                TLS Web Server Authentication, TLS Web Client Authentication
            X509v3 Subject Key Identifier: 
                D7:35:A3:74:82:2E:7C:D4:ED:44:A3:FF:65:70:9D:78:80:4E:26:0C
            X509v3 Authority Key Identifier: 
                keyid:FB:6B:95:FC:6B:3A:48:6A:B2:C6:AD:ED:72:C0:03:42:54:CE:7D:7B

            X509v3 Subject Alternative Name: 
                DNS:green.no, DNS:www.green.no
    Signature Algorithm: sha256WithRSAEncryption
         64:f7:47:4c:f7:1c:0a:35:f0:d5:22:82:1f:9e:df:1e:92:02:
         fb:38:b9:22:77:8b:3c:60:55:12:c5:c1:5e:d6:2e:f4:18:98:
         55:5a:8f:71:fe:47:15:a0:a7:2d:23:38:6a:73:cb:da:ae:28:
         7c:47:a9:71:85:58:78:a9:6b:63:b1:0f:87:8a:fd:c6:cf:b9:
         47:eb:91:70:15:c8:f3:0e:3e:1a:2e:1a:5a:c4:5b:95:d1:51:
         05:a7:7c:fa:b0:20:be:0e:a3:96:b6:cf:3d:1a:7c:27:9c:5e:
         e1:0b:2c:39:53:c5:5e:f8:b9:ab:ce:62:3e:ad:3d:24:55:de:
         f9:8c:cc:77:00:9a:43:76:15:93:ca:ef:c9:1c:a5:d9:54:2a:
         c6:a8:94:c1:0f:b9:85:20:ff:fd:ff:c4:ba:82:9c:e5:10:de:
         96:36:9d:67:65:a5:e9:8d:dc:b4:25:4c:8c:1d:7a:2d:2c:ab:
         20:35:d1:24:4d:09:ea:a5:63:b1:42:c8:d7:d3:ca:26:15:63:
         3a:46:77:69:66:f7:7f:aa:03:b7:69:75:1e:77:92:63:73:1a:
         2a:e2:43:20:7e:d1:70:0c:4a:33:e5:d3:3d:1a:4c:54:3e:ec:
         d9:31:ef:de:1f:99:ca:76:81:6e:a3:f6:57:8f:0b:d0:80:3d:
         39:60:9d:3e
-----BEGIN CERTIFICATE-----
MIID5DCCAsygAwIBAgIBATANBgkqhkiG9w0BAQsFADBXMQswCQYDVQQGEwJERTEQ
MA4GA1UECBMHSGFtYnVyZzEUMBIGA1UEChMLaGF3LWhhbWJ1cmcxDDAKBgNVBAsT
A1NWUzESMBAGA1UEAxMJU3ViLUNBLTI0MB4XDTIyMDUzMDE4MDMwNVoXDTIzMDUy
NzE4MDMwNVowcTELMAkGA1UEBhMCREUxEDAOBgNVBAgTB0hhbWJ1cmcxFDASBgNV
BAoTC2hhdy1oYW1idXJnMQwwCgYDVQQLEwNTVlMxLDAqBgNVBAMTI3N2czI0LmZ1
bC5pbmZvcm1hdGlrLmhhdy1oYW1idXJnLmRlMIIBIjANBgkqhkiG9w0BAQEFAAOC
AQ8AMIIBCgKCAQEA0Cg9EEgqdMxvqTRzrWIH2VtqDHAQpUjVqAPbs4aW5p7JS5CH
3B45P4loof4YPktcmKeWKGeD11qs8zU51iLH5XTm5sjeMzd2C5qfZcFRpycLEeIj
M6qi+hDh/hs7JO030j9XICt4XIuoJ8o7FRQ4MWyStLl/URY63X878N4Xw43FsEVy
LLWxi4HTG8bPoALNFpV8f6I2d099Yp9AW2rSBF0qUaCfJR1qZh5ulbhRNcHN3C80
6E+hZ06QyyaATbI0Hvdss4aKjte1o1AqIyoime1N5CkNaGYWQ+a0e4UJDo1bqRCF
Dcm7PSmXGg2MWqeX+zuBpjIQzaI9wiVs3fdgpQIDAQABo4GgMIGdMA4GA1UdDwEB
/wQEAwIFoDAJBgNVHRMEAjAAMB0GA1UdJQQWMBQGCCsGAQUFBwMBBggrBgEFBQcD
AjAdBgNVHQ4EFgQU1zWjdIIufNTtRKP/ZXCdeIBOJgwwHwYDVR0jBBgwFoAU+2uV
/Gs6SGqyxq3tcsADQlTOfXswIQYDVR0RBBowGIIIZ3JlZW4ubm+CDHd3dy5ncmVl
bi5ubzANBgkqhkiG9w0BAQsFAAOCAQEAZPdHTPccCjXw1SKCH57fHpIC+zi5IneL
PGBVEsXBXtYu9BiYVVqPcf5HFaCnLSM4anPL2q4ofEepcYVYeKlrY7EPh4r9xs+5
R+uRcBXI8w4+Gi4aWsRbldFRBad8+rAgvg6jlrbPPRp8J5xe4QssOVPFXvi5q85i
Pq09JFXe+YzMdwCaQ3YVk8rvyRyl2VQqxqiUwQ+5hSD//f/EuoKc5RDeljadZ2Wl
6Y3ctCVMjB16LSyrIDXRJE0J6qVjsULI19PKJhVjOkZ3aWb3f6oDt2l1HneSY3Ma
KuJDIH7RcAxKM+XTPRpMVD7s2THv3h+ZynaBbqP2V48L0IA9OWCdPg==
-----END CERTIFICATE-----
