Certificate:
    Data:
        Version: 3 (0x2)
        Serial Number: 1 (0x1)
        Signature Algorithm: sha256WithRSAEncryption
        Issuer: C=DE, ST=Hamburg, O=haw-hamburg, OU=SVS, CN=Sub-CA-24
        Validity
            Not Before: Jun 23 16:55:10 2022 GMT
            Not After : Jun 20 16:55:10 2023 GMT
        Subject: C=DE, ST=Hamburg, O=haw-hamburg, OU=SVS, CN=svs24.ful.informatik.haw-hamburg.de
        Subject Public Key Info:
            Public Key Algorithm: rsaEncryption
                RSA Public-Key: (4096 bit)
                Modulus:
                    00:bf:d9:1c:e6:13:b1:55:c5:e9:a5:7b:8f:36:73:
                    0a:f4:fe:6c:b5:7f:fd:5d:d4:f0:58:3b:9a:f9:ff:
                    45:40:48:21:97:8e:cc:45:6e:ac:29:ee:2b:9a:4b:
                    55:bb:b4:3a:cf:e2:6d:a4:25:fa:e5:db:02:44:b6:
                    c2:08:1c:65:bd:5b:b0:2e:4b:70:01:c7:ee:3f:7c:
                    ba:cd:da:3a:5b:3b:66:b8:b5:ec:46:59:32:45:2b:
                    e3:d3:fd:9a:9b:e7:da:65:2d:6f:70:e4:bc:37:b3:
                    f1:62:00:f3:54:75:c3:14:a0:28:c6:bd:93:34:76:
                    1b:d4:33:db:72:7e:02:5e:13:a1:95:f2:1f:db:64:
                    ee:a5:ca:6d:1c:de:d1:1b:26:11:7c:d8:62:a5:0a:
                    3d:99:f6:d5:ca:65:ff:39:a0:8d:b3:6a:df:1f:b1:
                    97:34:a0:4f:db:62:dd:35:04:f8:88:98:24:92:c4:
                    28:b5:9c:04:55:53:65:14:c3:dc:04:75:88:dd:f4:
                    4e:e6:72:dd:5e:06:24:c2:4b:50:ff:38:94:cf:6f:
                    87:d8:88:0b:49:bf:39:c3:7a:36:94:e2:56:f1:fa:
                    78:3b:66:40:eb:08:3d:da:ca:dc:66:f2:0c:80:5b:
                    9f:34:3b:6e:67:cb:15:d9:c7:80:1f:b7:e8:19:a9:
                    5a:12:41:54:d7:35:18:a9:c1:e3:ed:d0:5e:98:f5:
                    8d:ab:eb:6e:25:5a:d8:32:6a:bd:37:2d:85:95:46:
                    be:f1:7a:a0:a8:75:43:dd:79:2a:5c:36:98:fa:d1:
                    18:3d:18:89:f3:13:0b:99:49:a3:89:1f:b7:55:0b:
                    aa:48:0e:32:ad:68:0d:1d:b9:35:64:d1:7c:a9:09:
                    4e:23:c0:8f:03:c7:09:50:9d:49:11:19:f5:a6:6b:
                    42:b1:04:e2:e7:10:2f:43:b9:63:64:fe:62:de:58:
                    fd:39:47:ed:65:cd:2b:01:08:5c:6e:eb:d4:a7:88:
                    d0:ae:2a:e0:17:11:f7:c6:80:d5:d4:03:d3:f2:58:
                    b2:83:d8:1b:25:27:bf:86:9a:21:b1:b6:f7:32:49:
                    15:d1:89:2d:06:e3:6e:91:74:de:13:aa:10:b8:2c:
                    d7:a0:98:97:fe:f2:6d:54:10:39:20:63:19:d8:7e:
                    fd:6d:df:7c:83:36:e8:af:aa:3b:98:bf:7c:60:00:
                    3c:05:ad:c9:a6:5c:f1:da:92:9b:4c:9f:3a:5f:96:
                    f6:77:96:2f:6d:ed:5b:e3:b3:8b:93:e7:c9:ca:77:
                    f8:10:f8:ce:3b:98:5c:3e:1d:92:b9:ca:be:f3:02:
                    91:eb:26:56:96:bc:ea:63:d6:8f:98:d0:c8:b3:35:
                    60:ff:4d
                Exponent: 65537 (0x10001)
        X509v3 extensions:
            X509v3 Key Usage: critical
                Digital Signature, Key Encipherment
            X509v3 Basic Constraints: 
                CA:FALSE
            X509v3 Extended Key Usage: 
                TLS Web Server Authentication, TLS Web Client Authentication
            X509v3 Subject Key Identifier: 
                E4:D4:4B:70:BE:28:6C:D9:10:17:18:2F:8A:1B:DF:16:07:5C:96:6B
            X509v3 Authority Key Identifier: 
                keyid:D9:12:51:8A:17:9D:9D:BE:82:01:54:A9:8A:1E:C1:97:7E:75:47:12

            X509v3 Subject Alternative Name: 
                DNS:svs24.ful.informatik.haw-hamburg.de, DNS:www.svs24.ful.informatik.haw-hamburg.de
    Signature Algorithm: sha256WithRSAEncryption
         75:f2:0f:1b:61:e9:8a:18:96:0a:55:7a:cb:8f:44:1f:af:5c:
         24:16:8e:37:7d:2d:b7:cb:91:60:3b:77:db:86:0c:a4:5d:59:
         83:00:9a:36:0d:c8:01:e1:70:c5:71:2b:b3:2e:1a:86:82:08:
         2b:32:bc:25:16:3e:3f:2a:37:47:1f:bf:b6:08:03:41:c5:17:
         51:d0:69:9d:c9:e2:e0:e7:64:50:6a:c0:ab:cb:61:70:76:d8:
         38:61:2e:9f:55:03:d6:77:cc:a6:21:72:ae:12:f5:b0:b2:b2:
         48:dd:29:be:eb:af:b9:0b:cd:af:0e:a4:ce:aa:8c:20:d9:64:
         f1:6e:9f:10:94:99:30:16:49:16:83:14:5b:c1:d0:c4:20:bd:
         b8:2c:68:28:4c:c5:49:31:30:96:cf:c9:04:bf:3a:0c:da:61:
         d3:4e:3f:1d:11:90:e4:d8:4b:f1:9d:c6:5f:16:7b:25:16:19:
         f5:77:8e:46:ea:b9:0d:bc:33:e0:f2:c0:94:44:8a:2d:a5:99:
         06:80:5d:40:03:29:d0:26:73:df:1f:7d:94:23:1a:8f:65:aa:
         3b:e4:d3:77:e9:50:d0:2b:dc:4d:f6:03:e9:99:20:b9:3b:52:
         27:d3:f8:1c:fe:d4:67:b1:92:a5:eb:f6:a7:93:1b:54:1f:e2:
         85:e4:bf:d1:d1:78:1c:2c:dc:52:16:98:e0:ac:7f:f6:85:36:
         f4:fd:2d:cf:65:33:53:8b:d1:a7:67:46:1e:55:bc:e0:ba:3e:
         e9:35:3f:79:4b:21:f6:f5:d1:2d:84:b2:50:13:96:0e:1b:db:
         63:8e:3f:90:25:5f:75:c0:c5:38:2f:c3:76:5b:9c:3d:a5:03:
         60:fb:33:62:26:24:7a:c9:9d:9b:27:df:cd:be:d1:82:4c:4a:
         dc:91:29:4d:8b:41:27:44:f5:5f:88:1d:b5:ac:f1:b6:96:a7:
         94:8b:ac:6c:8c:31:ca:7d:3e:49:54:05:d3:aa:4b:94:99:ad:
         0f:e6:6c:89:f9:98:f2:8a:73:ca:ec:90:1a:86:50:33:d1:95:
         32:4e:90:d0:d1:b8:68:b0:0e:b9:9d:17:57:79:e7:63:9a:7b:
         69:0d:ca:58:5e:4c:80:ff:33:4b:73:9f:76:e0:ba:2a:7d:aa:
         c8:f0:e0:b5:bf:da:fe:e7:9f:51:82:22:3a:51:19:8e:69:c6:
         7d:4a:a9:da:7c:38:56:4e:db:b9:5d:0e:50:e2:00:4e:19:09:
         2d:0d:c9:e3:19:c2:ec:00:39:d3:6b:c2:80:40:b7:8b:3e:b4:
         07:4a:57:50:7d:ef:5c:8a:cb:a4:db:57:fd:98:64:04:cd:e3:
         82:87:d2:e7:07:74:f6:a1
-----BEGIN CERTIFICATE-----
MIIGGjCCBAKgAwIBAgIBATANBgkqhkiG9w0BAQsFADBXMQswCQYDVQQGEwJERTEQ
MA4GA1UECBMHSGFtYnVyZzEUMBIGA1UEChMLaGF3LWhhbWJ1cmcxDDAKBgNVBAsT
A1NWUzESMBAGA1UEAxMJU3ViLUNBLTI0MB4XDTIyMDYyMzE2NTUxMFoXDTIzMDYy
MDE2NTUxMFowcTELMAkGA1UEBhMCREUxEDAOBgNVBAgTB0hhbWJ1cmcxFDASBgNV
BAoTC2hhdy1oYW1idXJnMQwwCgYDVQQLEwNTVlMxLDAqBgNVBAMTI3N2czI0LmZ1
bC5pbmZvcm1hdGlrLmhhdy1oYW1idXJnLmRlMIICIjANBgkqhkiG9w0BAQEFAAOC
Ag8AMIICCgKCAgEAv9kc5hOxVcXppXuPNnMK9P5stX/9XdTwWDua+f9FQEghl47M
RW6sKe4rmktVu7Q6z+JtpCX65dsCRLbCCBxlvVuwLktwAcfuP3y6zdo6WztmuLXs
RlkyRSvj0/2am+faZS1vcOS8N7PxYgDzVHXDFKAoxr2TNHYb1DPbcn4CXhOhlfIf
22TupcptHN7RGyYRfNhipQo9mfbVymX/OaCNs2rfH7GXNKBP22LdNQT4iJgkksQo
tZwEVVNlFMPcBHWI3fRO5nLdXgYkwktQ/ziUz2+H2IgLSb85w3o2lOJW8fp4O2ZA
6wg92srcZvIMgFufNDtuZ8sV2ceAH7foGalaEkFU1zUYqcHj7dBemPWNq+tuJVrY
Mmq9Ny2FlUa+8XqgqHVD3XkqXDaY+tEYPRiJ8xMLmUmjiR+3VQuqSA4yrWgNHbk1
ZNF8qQlOI8CPA8cJUJ1JERn1pmtCsQTi5xAvQ7ljZP5i3lj9OUftZc0rAQhcbuvU
p4jQrirgFxH3xoDV1APT8liyg9gbJSe/hpohsbb3MkkV0YktBuNukXTeE6oQuCzX
oJiX/vJtVBA5IGMZ2H79bd98gzbor6o7mL98YAA8Ba3Jplzx2pKbTJ86X5b2d5Yv
be1b47OLk+fJynf4EPjOO5hcPh2Sucq+8wKR6yZWlrzqY9aPmNDIszVg/00CAwEA
AaOB1jCB0zAOBgNVHQ8BAf8EBAMCBaAwCQYDVR0TBAIwADAdBgNVHSUEFjAUBggr
BgEFBQcDAQYIKwYBBQUHAwIwHQYDVR0OBBYEFOTUS3C+KGzZEBcYL4ob3xYHXJZr
MB8GA1UdIwQYMBaAFNkSUYoXnZ2+ggFUqYoewZd+dUcSMFcGA1UdEQRQME6CI3N2
czI0LmZ1bC5pbmZvcm1hdGlrLmhhdy1oYW1idXJnLmRlgid3d3cuc3ZzMjQuZnVs
LmluZm9ybWF0aWsuaGF3LWhhbWJ1cmcuZGUwDQYJKoZIhvcNAQELBQADggIBAHXy
Dxth6YoYlgpVesuPRB+vXCQWjjd9LbfLkWA7d9uGDKRdWYMAmjYNyAHhcMVxK7Mu
GoaCCCsyvCUWPj8qN0cfv7YIA0HFF1HQaZ3J4uDnZFBqwKvLYXB22DhhLp9VA9Z3
zKYhcq4S9bCyskjdKb7rr7kLza8OpM6qjCDZZPFunxCUmTAWSRaDFFvB0MQgvbgs
aChMxUkxMJbPyQS/OgzaYdNOPx0RkOTYS/Gdxl8WeyUWGfV3jkbquQ28M+DywJRE
ii2lmQaAXUADKdAmc98ffZQjGo9lqjvk03fpUNAr3E32A+mZILk7UifT+Bz+1Gex
kqXr9qeTG1Qf4oXkv9HReBws3FIWmOCsf/aFNvT9Lc9lM1OL0adnRh5VvOC6Puk1
P3lLIfb10S2EslATlg4b22OOP5AlX3XAxTgvw3ZbnD2lA2D7M2ImJHrJnZsn382+
0YJMStyRKU2LQSdE9V+IHbWs8baWp5SLrGyMMcp9PklUBdOqS5SZrQ/mbIn5mPKK
c8rskBqGUDPRlTJOkNDRuGiwDrmdF1d552Oae2kNylheTID/M0tzn3bguip9qsjw
4LW/2v7nn1GCIjpRGY5pxn1Kqdp8OFZO27ldDlDiAE4ZCS0NyeMZwuwAOdNrwoBA
t4s+tAdKV1B971yKy6TbV/2YZATN44KH0ucHdPah
-----END CERTIFICATE-----
