Certificate:
    Data:
        Version: 3 (0x2)
        Serial Number: 1 (0x1)
        Signature Algorithm: sha256WithRSAEncryption
        Issuer: C=DE, ST=Hamburg, O=haw-hamburg, OU=SVS, CN=Sub-CA-24
        Validity
            Not Before: Jun 29 21:41:13 2022 GMT
            Not After : Jun 26 21:41:13 2023 GMT
        Subject: C=DE, ST=Hamburg, O=haw-hamburg, OU=SVS, CN=svs24.ful.informatik.haw-hamburg.de
        Subject Public Key Info:
            Public Key Algorithm: rsaEncryption
                RSA Public-Key: (4096 bit)
                Modulus:
                    00:9a:0b:d2:84:d3:e1:ba:81:37:a7:5e:ed:5f:a5:
                    7c:68:f3:4e:a7:bf:86:e8:85:16:4c:ae:39:53:c3:
                    ad:e3:60:79:5f:30:e1:c2:aa:9c:a2:d9:da:7d:d2:
                    10:7e:b5:4e:98:83:c9:b4:ab:2e:99:2c:27:f7:a4:
                    54:5b:d1:16:c4:43:c1:21:31:0e:f2:32:0f:80:c8:
                    6c:d5:8a:4e:6d:f2:ff:33:a5:ba:5a:a5:28:c7:c0:
                    10:af:c9:fb:bd:59:82:e2:89:bc:b7:4c:6c:d4:e5:
                    ae:41:71:4a:a1:13:06:2b:f9:58:ed:7d:3e:08:af:
                    12:d3:54:64:4d:07:48:4f:3d:7c:14:51:3f:9e:8f:
                    85:5d:a8:a6:4a:e9:23:38:d9:3b:92:60:6f:62:01:
                    dd:c6:1b:aa:0a:28:9f:ef:ce:d1:58:e4:78:fd:fb:
                    43:b9:a7:97:42:d5:73:63:cd:df:13:21:93:80:65:
                    a6:6e:13:a5:1b:36:d1:cb:c8:e4:f2:a2:7f:97:ab:
                    5e:92:5e:a3:fc:cb:a8:ee:e6:e9:9d:18:5f:96:dd:
                    2e:23:64:b9:fa:f1:50:a3:1c:63:8e:54:70:68:00:
                    75:94:a2:0e:a8:7c:f1:75:fd:1d:59:17:b9:7f:9e:
                    21:d1:21:0f:5f:69:14:e8:cb:86:b1:a0:2c:13:f9:
                    d2:cf:ad:44:f2:49:3c:77:04:9a:60:48:9a:10:f3:
                    b1:b4:4e:c7:df:85:57:d7:ea:65:47:d8:79:c6:2d:
                    fc:93:15:e7:0d:e7:df:97:c2:55:fa:de:cf:6c:86:
                    81:21:20:66:d4:fd:af:6c:b9:2c:d6:05:11:04:11:
                    84:4c:40:4f:6b:ab:d2:05:6d:43:56:bd:18:9d:59:
                    8d:47:16:b3:1c:32:7b:e9:4c:9f:60:f7:60:6c:45:
                    76:3b:8d:69:37:b7:3a:6f:fc:23:47:e6:8a:2b:77:
                    d8:b1:bc:50:55:88:86:b7:93:40:32:0c:e9:e7:d0:
                    3e:fa:cc:43:1b:29:54:17:b5:86:c8:3b:98:76:00:
                    f9:17:e4:c0:fe:68:ff:48:94:3c:0a:03:63:ba:e6:
                    db:ae:3f:93:e5:69:84:6a:da:0c:b9:74:0c:23:14:
                    39:42:f8:7f:65:ab:81:2f:de:f0:a0:b2:5b:a1:c5:
                    94:17:84:c1:1f:e5:0a:27:8b:52:af:79:15:8b:60:
                    8d:cf:8c:f7:ac:71:bc:6c:e2:74:5b:aa:92:bc:74:
                    ed:d7:76:3a:64:f6:9c:c5:db:0c:c4:ad:00:d1:09:
                    b0:89:9a:96:f4:d2:b4:78:a5:54:16:b9:2f:ed:09:
                    f5:91:17:7a:87:48:24:2b:2a:ce:5e:87:a5:2f:19:
                    72:7a:fb
                Exponent: 65537 (0x10001)
        X509v3 extensions:
            X509v3 Key Usage: critical
                Digital Signature, Key Encipherment
            X509v3 Basic Constraints: 
                CA:FALSE
            X509v3 Extended Key Usage: 
                TLS Web Server Authentication, TLS Web Client Authentication
            X509v3 Subject Key Identifier: 
                26:01:60:61:29:E0:FE:3F:33:23:C8:89:48:59:19:D1:39:0F:59:D4
            X509v3 Authority Key Identifier: 
                keyid:B2:D5:90:11:DB:65:FB:59:D6:EA:DD:99:12:3F:29:1A:A3:12:F3:98

            X509v3 CRL Distribution Points: 

                Full Name:
                  URI:http://svs24.ful.informatik.haw-hamburg.de/tls-ca.crl

            X509v3 Subject Alternative Name: 
                DNS:svs24.ful.informatik.haw-hamburg.de, DNS:www.svs24.ful.informatik.haw-hamburg.de
    Signature Algorithm: sha256WithRSAEncryption
         54:6e:3b:9b:e3:45:a6:02:97:2e:7c:f8:79:00:f8:13:b1:77:
         8d:4f:78:69:e6:88:fb:bc:f3:d7:91:93:09:d2:99:6a:78:ae:
         46:55:41:68:c5:12:1c:ad:eb:cd:5f:b8:41:00:a2:ae:ef:99:
         ae:c7:6c:15:19:df:1d:29:8e:68:f1:c2:0f:0a:0d:17:d0:7d:
         5f:4e:37:96:49:cc:0d:62:3b:de:57:a9:23:74:74:0d:86:0b:
         a6:dd:43:2f:f2:f5:d6:c8:dc:1c:d3:49:f0:e1:a1:36:a6:f8:
         3b:a2:a4:9e:ea:44:9f:26:cb:3c:dd:ff:70:25:34:9d:2b:f7:
         2e:99:50:74:65:04:d2:5b:ed:62:e6:b7:c7:78:84:e9:6a:b7:
         d8:56:d1:11:96:76:17:54:54:8d:a2:26:19:51:ae:a6:4a:43:
         fd:1f:dc:64:c6:56:35:c5:e5:ec:bb:1e:8c:f7:2b:1d:5a:3b:
         00:88:39:bb:ac:77:f2:7c:c7:33:ff:84:f1:c7:ed:9a:89:27:
         ee:1f:d4:52:cc:16:4a:a4:e1:fa:fe:6e:c1:aa:d2:4a:79:4c:
         7d:d9:04:93:7c:63:48:e8:16:4e:7b:b8:c6:61:d6:bb:fe:a6:
         74:56:51:0d:b3:20:dc:e7:47:63:b7:20:71:43:fa:bf:31:75:
         44:a8:ec:5e:58:41:09:44:b8:a6:ac:fa:6f:82:3e:7d:29:c1:
         4d:a1:d7:77:de:e3:4c:ca:1f:ac:35:aa:fa:87:74:41:00:0e:
         14:d0:3b:e8:cc:03:34:05:57:78:e3:6f:72:e3:29:64:ce:32:
         9b:fb:c7:b0:63:47:af:0e:7e:68:a5:05:f8:df:32:12:d8:8a:
         e9:8a:29:ad:de:5c:3f:75:68:89:c0:e9:5e:4f:de:44:68:9c:
         8e:f8:fd:68:5c:00:58:59:21:af:37:49:c4:bc:7a:eb:ce:2e:
         e6:c7:eb:fd:34:fa:1c:63:21:e8:8b:91:47:81:14:73:09:4e:
         f6:54:fd:7c:27:43:6b:bd:5c:19:ab:50:74:f9:79:72:58:90:
         75:d2:6a:7d:a3:f1:3a:8b:49:af:86:45:fa:39:13:18:a1:45:
         90:db:0e:77:fe:6d:9d:0f:6e:6d:50:0a:5e:60:fd:d1:f7:12:
         8c:db:12:0a:6d:18:10:cd:ba:36:f2:f0:b3:37:82:ba:b3:90:
         56:c7:b7:97:70:c4:c3:6b:fe:1b:cb:5a:99:f4:f9:42:e0:7d:
         40:d9:cd:d8:1f:a6:67:44:c2:a9:8f:eb:eb:00:b7:4f:dc:a1:
         78:d5:88:65:13:24:f4:20:96:9a:a2:a6:29:3f:fb:b3:b5:bc:
         d2:c9:52:e6:38:27:01:e5
-----BEGIN CERTIFICATE-----
MIIGZDCCBEygAwIBAgIBATANBgkqhkiG9w0BAQsFADBXMQswCQYDVQQGEwJERTEQ
MA4GA1UECAwHSGFtYnVyZzEUMBIGA1UECgwLaGF3LWhhbWJ1cmcxDDAKBgNVBAsM
A1NWUzESMBAGA1UEAwwJU3ViLUNBLTI0MB4XDTIyMDYyOTIxNDExM1oXDTIzMDYy
NjIxNDExM1owcTELMAkGA1UEBhMCREUxEDAOBgNVBAgMB0hhbWJ1cmcxFDASBgNV
BAoMC2hhdy1oYW1idXJnMQwwCgYDVQQLDANTVlMxLDAqBgNVBAMMI3N2czI0LmZ1
bC5pbmZvcm1hdGlrLmhhdy1oYW1idXJnLmRlMIICIjANBgkqhkiG9w0BAQEFAAOC
Ag8AMIICCgKCAgEAmgvShNPhuoE3p17tX6V8aPNOp7+G6IUWTK45U8Ot42B5XzDh
wqqcotnafdIQfrVOmIPJtKsumSwn96RUW9EWxEPBITEO8jIPgMhs1YpObfL/M6W6
WqUox8AQr8n7vVmC4om8t0xs1OWuQXFKoRMGK/lY7X0+CK8S01RkTQdITz18FFE/
no+FXaimSukjONk7kmBvYgHdxhuqCiif787RWOR4/ftDuaeXQtVzY83fEyGTgGWm
bhOlGzbRy8jk8qJ/l6tekl6j/Muo7ubpnRhflt0uI2S5+vFQoxxjjlRwaAB1lKIO
qHzxdf0dWRe5f54h0SEPX2kU6MuGsaAsE/nSz61E8kk8dwSaYEiaEPOxtE7H34VX
1+plR9h5xi38kxXnDeffl8JV+t7PbIaBISBm1P2vbLks1gURBBGETEBPa6vSBW1D
Vr0YnVmNRxazHDJ76UyfYPdgbEV2O41pN7c6b/wjR+aKK3fYsbxQVYiGt5NAMgzp
59A++sxDGylUF7WGyDuYdgD5F+TA/mj/SJQ8CgNjuubbrj+T5WmEatoMuXQMIxQ5
Qvh/ZauBL97woLJbocWUF4TBH+UKJ4tSr3kVi2CNz4z3rHG8bOJ0W6qSvHTt13Y6
ZPacxdsMxK0A0QmwiZqW9NK0eKVUFrkv7Qn1kRd6h0gkKyrOXoelLxlyevsCAwEA
AaOCAR8wggEbMA4GA1UdDwEB/wQEAwIFoDAJBgNVHRMEAjAAMB0GA1UdJQQWMBQG
CCsGAQUFBwMBBggrBgEFBQcDAjAdBgNVHQ4EFgQUJgFgYSng/j8zI8iJSFkZ0TkP
WdQwHwYDVR0jBBgwFoAUstWQEdtl+1nW6t2ZEj8pGqMS85gwRgYDVR0fBD8wPTA7
oDmgN4Y1aHR0cDovL3N2czI0LmZ1bC5pbmZvcm1hdGlrLmhhdy1oYW1idXJnLmRl
L3Rscy1jYS5jcmwwVwYDVR0RBFAwToIjc3ZzMjQuZnVsLmluZm9ybWF0aWsuaGF3
LWhhbWJ1cmcuZGWCJ3d3dy5zdnMyNC5mdWwuaW5mb3JtYXRpay5oYXctaGFtYnVy
Zy5kZTANBgkqhkiG9w0BAQsFAAOCAgEAVG47m+NFpgKXLnz4eQD4E7F3jU94aeaI
+7zz15GTCdKZaniuRlVBaMUSHK3rzV+4QQCiru+ZrsdsFRnfHSmOaPHCDwoNF9B9
X043lknMDWI73lepI3R0DYYLpt1DL/L11sjcHNNJ8OGhNqb4O6KknupEnybLPN3/
cCU0nSv3LplQdGUE0lvtYua3x3iE6Wq32FbREZZ2F1RUjaImGVGupkpD/R/cZMZW
NcXl7LsejPcrHVo7AIg5u6x38nzHM/+E8cftmokn7h/UUswWSqTh+v5uwarSSnlM
fdkEk3xjSOgWTnu4xmHWu/6mdFZRDbMg3OdHY7cgcUP6vzF1RKjsXlhBCUS4pqz6
b4I+fSnBTaHXd97jTMofrDWq+od0QQAOFNA76MwDNAVXeONvcuMpZM4ym/vHsGNH
rw5+aKUF+N8yEtiK6Yoprd5cP3VoicDpXk/eRGicjvj9aFwAWFkhrzdJxLx6684u
5sfr/TT6HGMh6IuRR4EUcwlO9lT9fCdDa71cGatQdPl5cliQddJqfaPxOotJr4ZF
+jkTGKFFkNsOd/5tnQ9ubVAKXmD90fcSjNsSCm0YEM26NvLwszeCurOQVse3l3DE
w2v+G8tamfT5QuB9QNnN2B+mZ0TCqY/r6wC3T9yheNWIZRMk9CCWmqKmKT/7s7W8
0slS5jgnAeU=
-----END CERTIFICATE-----
