Certificate:
    Data:
        Version: 3 (0x2)
        Serial Number: 1 (0x1)
        Signature Algorithm: sha256WithRSAEncryption
        Issuer: C=DE, ST=Hamburg, O=haw-hamburg, OU=SVS, CN=Sub-CA-24
        Validity
            Not Before: Jun 27 20:28:58 2022 GMT
            Not After : Jun 24 20:28:58 2023 GMT
        Subject: C=DE, ST=Hamburg, O=haw-hamburg, OU=SVS, CN=svs24.ful.informatik.haw-hamburg.de
        Subject Public Key Info:
            Public Key Algorithm: rsaEncryption
                RSA Public-Key: (4096 bit)
                Modulus:
                    00:bb:b7:ac:e6:d3:53:10:cf:22:86:6c:de:07:7f:
                    68:3b:1b:eb:11:22:e8:0c:bc:d6:8c:2d:88:89:9e:
                    be:c6:15:96:77:2b:a8:57:c6:a4:07:5c:b4:d7:db:
                    4a:b6:11:bc:c0:ae:57:f4:76:75:8d:aa:3e:4e:75:
                    9b:f7:a9:c2:92:e6:bc:67:fa:a9:fa:75:43:9c:c8:
                    f1:db:a0:bd:37:6c:2f:89:b0:1c:44:59:96:35:54:
                    0d:5b:da:d3:d5:b6:7f:70:3e:1f:4e:64:15:1b:eb:
                    52:2e:7f:e5:83:d9:d3:e0:19:91:61:c6:50:45:a3:
                    d7:82:73:98:ab:5f:a3:a3:a9:f5:23:42:4f:6d:b9:
                    b9:3e:60:68:fb:2a:52:4c:82:fb:58:a6:6e:29:0d:
                    43:cd:ad:13:b8:5c:aa:45:a6:33:38:df:d9:ba:91:
                    04:25:50:a5:aa:2a:3e:08:b6:db:be:a6:3d:ba:e9:
                    9b:fc:5d:2d:c1:c8:5e:38:13:df:56:05:85:34:86:
                    0f:e9:fd:0b:d1:9a:cb:90:61:3f:89:09:f7:72:3c:
                    01:36:3a:d5:85:09:8a:7d:fc:08:ec:37:e0:dd:24:
                    df:5e:88:74:02:54:a8:36:54:68:b5:08:49:6b:71:
                    c9:05:b5:f5:48:e4:6d:00:f6:57:03:9f:6c:c9:aa:
                    5c:bd:f8:d2:48:72:0e:f9:23:38:70:8a:5a:84:25:
                    f1:38:88:6d:af:11:e1:b9:ca:23:83:ca:1c:0f:fe:
                    cd:2f:e8:9c:25:ce:86:aa:f4:11:3a:55:3c:c6:16:
                    66:c8:59:3d:48:e2:9b:08:d8:4e:18:c5:c0:7e:48:
                    07:8b:aa:c1:f8:ed:46:b8:c5:04:31:e1:aa:c9:35:
                    b2:a1:95:ce:0a:d1:0a:44:26:f5:1e:da:28:8e:ed:
                    d3:df:8b:dd:e3:d8:04:02:7b:45:34:0c:9a:21:d8:
                    c6:fe:8d:2f:44:58:03:f6:33:08:ff:95:19:a1:d8:
                    ad:13:5d:7a:60:f1:0b:0b:c2:22:70:23:dd:9e:4b:
                    75:9e:06:0e:7e:41:42:b9:8c:3e:55:5c:d4:c8:2d:
                    ba:27:61:04:aa:8c:21:b2:fb:54:4f:78:8d:73:ce:
                    97:90:91:e2:1b:8e:23:7d:8b:ed:a5:b5:77:b7:23:
                    8d:cb:f8:9f:2e:23:eb:b0:b8:1b:e3:75:08:6d:b3:
                    4e:95:13:ee:73:f2:5d:06:fe:c2:50:7b:51:20:f6:
                    ed:e7:8f:34:17:cd:f7:54:7b:e9:47:87:b8:59:b2:
                    f3:ff:b7:cb:6b:7c:61:bf:83:d0:33:d8:60:f7:bf:
                    53:b9:b5:0c:1f:bb:52:4d:23:71:a3:c1:84:f9:16:
                    98:4c:07
                Exponent: 65537 (0x10001)
        X509v3 extensions:
            X509v3 Key Usage: critical
                Digital Signature, Key Encipherment
            X509v3 Basic Constraints: 
                CA:FALSE
            X509v3 Extended Key Usage: 
                TLS Web Server Authentication, TLS Web Client Authentication
            X509v3 Subject Key Identifier: 
                82:AB:9D:E8:D8:0C:17:9C:14:0E:F1:D0:D0:11:5A:EB:86:42:30:36
            X509v3 Authority Key Identifier: 
                keyid:A3:61:6F:1D:0D:E8:99:60:C5:1C:C2:AC:47:BF:24:FF:70:9E:49:72

            X509v3 CRL Distribution Points: 

                Full Name:
                  URI:http://svs24.ful.informatik.haw-hamburg.de/tls-ca.crl

            X509v3 Subject Alternative Name: 
                DNS:svs24.ful.informatik.haw-hamburg.de, DNS:www.svs24.ful.informatik.haw-hamburg.de
    Signature Algorithm: sha256WithRSAEncryption
         63:72:8f:65:ff:a9:6f:7d:6a:99:7a:d9:db:e4:e4:a7:c5:59:
         34:cc:0b:60:0d:2d:c3:2e:34:5b:c4:2e:07:6d:1f:f6:d9:90:
         7f:32:1d:e9:c5:ef:df:d9:cf:9a:58:e4:06:eb:55:75:fb:39:
         85:a3:b7:4f:e7:df:0e:a5:b2:23:1b:67:0c:a5:c5:ba:bc:5c:
         da:06:d7:f2:b7:35:df:7f:71:df:0c:bb:0e:0b:c2:9a:ed:c0:
         ab:d0:05:ce:a7:8c:45:ba:c7:30:93:6b:c2:95:9d:5a:8e:2d:
         94:80:9c:4b:57:c0:83:50:f2:fb:55:d7:5c:0c:81:1a:5a:78:
         94:c7:4f:52:a9:7f:b8:c6:85:2d:cd:ea:04:f6:57:8d:c2:93:
         92:13:48:4f:1e:68:26:bf:9c:50:46:e8:f4:f9:7a:8c:be:c8:
         fd:5d:5c:0a:88:93:6f:62:5e:b2:4b:c1:19:04:86:2e:b6:8d:
         9d:ec:00:7e:87:20:db:cb:45:59:8b:ef:fe:05:63:5e:d5:11:
         55:2e:30:d9:4e:98:56:71:34:4c:0a:19:ce:95:6e:56:34:39:
         cf:94:dc:69:7b:de:ec:bc:31:37:0e:59:12:49:4a:f6:42:76:
         d2:3a:97:83:5f:bf:50:a2:88:55:76:6f:8d:64:13:98:fa:eb:
         ce:38:51:97:a6:dd:21:e7:c1:d5:4c:14:7d:ed:5e:d3:45:ef:
         f0:8a:da:7a:de:39:8d:ba:1f:89:53:cd:ba:7a:b4:40:21:3b:
         e0:83:e0:bb:4a:57:2d:9e:35:74:8d:ea:d2:ec:a4:c8:6e:f0:
         48:b7:89:d8:54:33:43:8e:bd:2d:8d:dc:27:16:59:f5:bd:5f:
         c7:91:f8:ad:ed:ca:47:22:84:a0:02:4c:4b:01:57:14:3b:e0:
         df:ab:fd:e1:a2:75:1a:55:f0:0c:da:e4:6a:04:3d:f3:cf:d1:
         af:3c:ea:f1:90:66:4c:ac:06:24:a4:ea:3b:06:b4:16:96:fc:
         bb:8b:64:53:4a:f7:c8:ae:ce:77:d6:2c:ea:dd:fe:b1:fd:86:
         9a:82:ed:c4:9c:16:cd:6f:4c:a4:43:13:1c:66:61:bd:1e:41:
         97:62:ae:81:09:fd:b7:a2:34:e5:d1:1e:e5:57:c8:24:45:c9:
         a1:eb:80:6e:af:54:a1:12:a4:25:2a:2c:88:46:31:e7:33:8f:
         dc:62:62:65:e4:f4:0d:b8:fe:af:43:f6:32:f6:31:00:65:fc:
         bd:94:a9:1b:42:7d:e2:84:e3:71:54:e1:ea:63:60:08:57:75:
         7d:2a:a5:92:de:63:4f:b6:e1:4b:3b:ff:5d:48:57:cb:d4:b9:
         8a:37:6f:ad:73:8c:fe:f9
-----BEGIN CERTIFICATE-----
MIIGZDCCBEygAwIBAgIBATANBgkqhkiG9w0BAQsFADBXMQswCQYDVQQGEwJERTEQ
MA4GA1UECBMHSGFtYnVyZzEUMBIGA1UEChMLaGF3LWhhbWJ1cmcxDDAKBgNVBAsT
A1NWUzESMBAGA1UEAxMJU3ViLUNBLTI0MB4XDTIyMDYyNzIwMjg1OFoXDTIzMDYy
NDIwMjg1OFowcTELMAkGA1UEBhMCREUxEDAOBgNVBAgTB0hhbWJ1cmcxFDASBgNV
BAoTC2hhdy1oYW1idXJnMQwwCgYDVQQLEwNTVlMxLDAqBgNVBAMTI3N2czI0LmZ1
bC5pbmZvcm1hdGlrLmhhdy1oYW1idXJnLmRlMIICIjANBgkqhkiG9w0BAQEFAAOC
Ag8AMIICCgKCAgEAu7es5tNTEM8ihmzeB39oOxvrESLoDLzWjC2IiZ6+xhWWdyuo
V8akB1y019tKthG8wK5X9HZ1jao+TnWb96nCkua8Z/qp+nVDnMjx26C9N2wvibAc
RFmWNVQNW9rT1bZ/cD4fTmQVG+tSLn/lg9nT4BmRYcZQRaPXgnOYq1+jo6n1I0JP
bbm5PmBo+ypSTIL7WKZuKQ1Dza0TuFyqRaYzON/ZupEEJVClqio+CLbbvqY9uumb
/F0twcheOBPfVgWFNIYP6f0L0ZrLkGE/iQn3cjwBNjrVhQmKffwI7Dfg3STfXoh0
AlSoNlRotQhJa3HJBbX1SORtAPZXA59syapcvfjSSHIO+SM4cIpahCXxOIhtrxHh
ucojg8ocD/7NL+icJc6GqvQROlU8xhZmyFk9SOKbCNhOGMXAfkgHi6rB+O1GuMUE
MeGqyTWyoZXOCtEKRCb1Htooju3T34vd49gEAntFNAyaIdjG/o0vRFgD9jMI/5UZ
oditE116YPELC8IicCPdnkt1ngYOfkFCuYw+VVzUyC26J2EEqowhsvtUT3iNc86X
kJHiG44jfYvtpbV3tyONy/ifLiPrsLgb43UIbbNOlRPuc/JdBv7CUHtRIPbt5480
F833VHvpR4e4WbLz/7fLa3xhv4PQM9hg979TubUMH7tSTSNxo8GE+RaYTAcCAwEA
AaOCAR8wggEbMA4GA1UdDwEB/wQEAwIFoDAJBgNVHRMEAjAAMB0GA1UdJQQWMBQG
CCsGAQUFBwMBBggrBgEFBQcDAjAdBgNVHQ4EFgQUgqud6NgMF5wUDvHQ0BFa64ZC
MDYwHwYDVR0jBBgwFoAUo2FvHQ3omWDFHMKsR78k/3CeSXIwRgYDVR0fBD8wPTA7
oDmgN4Y1aHR0cDovL3N2czI0LmZ1bC5pbmZvcm1hdGlrLmhhdy1oYW1idXJnLmRl
L3Rscy1jYS5jcmwwVwYDVR0RBFAwToIjc3ZzMjQuZnVsLmluZm9ybWF0aWsuaGF3
LWhhbWJ1cmcuZGWCJ3d3dy5zdnMyNC5mdWwuaW5mb3JtYXRpay5oYXctaGFtYnVy
Zy5kZTANBgkqhkiG9w0BAQsFAAOCAgEAY3KPZf+pb31qmXrZ2+Tkp8VZNMwLYA0t
wy40W8QuB20f9tmQfzId6cXv39nPmljkButVdfs5haO3T+ffDqWyIxtnDKXFurxc
2gbX8rc1339x3wy7DgvCmu3Aq9AFzqeMRbrHMJNrwpWdWo4tlICcS1fAg1Dy+1XX
XAyBGlp4lMdPUql/uMaFLc3qBPZXjcKTkhNITx5oJr+cUEbo9Pl6jL7I/V1cCoiT
b2JeskvBGQSGLraNnewAfocg28tFWYvv/gVjXtURVS4w2U6YVnE0TAoZzpVuVjQ5
z5TcaXve7LwxNw5ZEklK9kJ20jqXg1+/UKKIVXZvjWQTmPrrzjhRl6bdIefB1UwU
fe1e00Xv8Iraet45jbofiVPNunq0QCE74IPgu0pXLZ41dI3q0uykyG7wSLeJ2FQz
Q469LY3cJxZZ9b1fx5H4re3KRyKEoAJMSwFXFDvg36v94aJ1GlXwDNrkagQ988/R
rzzq8ZBmTKwGJKTqOwa0Fpb8u4tkU0r3yK7Od9Ys6t3+sf2GmoLtxJwWzW9MpEMT
HGZhvR5Bl2KugQn9t6I05dEe5VfIJEXJoeuAbq9UoRKkJSosiEYx5zOP3GJiZeT0
Dbj+r0P2MvYxAGX8vZSpG0J94oTjcVTh6mNgCFd1fSqlkt5jT7bhSzv/XUhXy9S5
ijdvrXOM/vk=
-----END CERTIFICATE-----
