Certificate:
    Data:
        Version: 3 (0x2)
        Serial Number: 2 (0x2)
        Signature Algorithm: sha256WithRSAEncryption
        Issuer: C=DE, ST=Hamburg, O=haw-hamburg, OU=SVS, CN=Sub-CA-24
        Validity
            Not Before: May 30 18:06:21 2022 GMT
            Not After : May 27 18:06:21 2023 GMT
        Subject: C=DE, ST=Hamburg, O=haw-hamburg, OU=SVS, CN=svs24.ful.informatik.haw-hamburg.de
        Subject Public Key Info:
            Public Key Algorithm: rsaEncryption
                RSA Public-Key: (2048 bit)
                Modulus:
                    00:c9:1c:d8:2e:c8:a7:e5:bb:2c:7e:88:6c:05:66:
                    7d:91:84:79:0a:f5:36:8a:7f:69:f6:58:64:17:58:
                    4d:fd:4a:d2:b9:4b:a0:dc:04:16:db:b3:a6:2e:54:
                    33:06:16:b5:fd:54:b7:00:b5:ac:31:47:3d:88:8b:
                    26:57:c5:bf:95:db:b3:89:88:bc:58:2a:a1:87:d7:
                    46:f0:25:9e:b9:80:17:bb:79:9b:47:e6:41:f1:18:
                    a1:af:9d:ee:4b:f7:99:7d:90:00:22:3d:fe:e6:de:
                    67:86:6f:24:9f:30:0b:34:1d:a6:00:74:ee:90:cc:
                    be:62:04:57:82:68:a5:2a:54:93:3f:2d:ef:ce:0d:
                    11:d6:68:d8:c7:d9:48:a1:fd:22:ce:60:10:72:4d:
                    f1:68:05:fa:2f:51:ae:01:7d:66:28:8d:bb:e3:01:
                    75:a1:7e:f8:69:89:ad:c0:1e:f0:ab:ef:91:15:86:
                    e3:a6:99:32:cf:0c:f8:5f:e8:34:a1:03:ee:ba:e5:
                    10:24:f2:d3:94:0d:23:df:51:68:34:24:ac:f1:52:
                    bf:ec:26:02:97:63:a3:57:8a:e3:7b:7a:2e:3b:69:
                    5b:65:54:3e:6b:1e:57:b9:11:f6:d7:32:97:5a:ab:
                    97:99:3c:92:41:c6:83:92:f3:0a:68:02:13:04:aa:
                    9b:91
                Exponent: 65537 (0x10001)
        X509v3 extensions:
            X509v3 Key Usage: critical
                Digital Signature, Key Encipherment
            X509v3 Basic Constraints: 
                CA:FALSE
            X509v3 Extended Key Usage: 
                TLS Web Server Authentication, TLS Web Client Authentication
            X509v3 Subject Key Identifier: 
                1F:AB:E4:DE:F1:7C:EE:46:0F:6F:1A:34:CC:E2:35:61:6E:FC:3D:42
            X509v3 Authority Key Identifier: 
                keyid:FB:6B:95:FC:6B:3A:48:6A:B2:C6:AD:ED:72:C0:03:42:54:CE:7D:7B

            X509v3 Subject Alternative Name: 
                DNS:svs24.ful.informatik.haw-hamburg.de, DNS:www.svs24.ful.informatik.haw-hamburg.de
    Signature Algorithm: sha256WithRSAEncryption
         2e:30:c9:ac:a7:e2:de:1a:99:fb:aa:8c:36:bd:52:d3:4b:9e:
         a6:f6:39:0e:e6:d9:d9:fa:2e:c2:a7:89:4b:6a:6a:20:66:e3:
         1b:b8:01:63:13:e0:23:40:d8:3f:4a:fd:d6:7a:7a:ca:2d:93:
         12:c5:09:c4:ff:11:a1:1e:82:7a:22:b8:fd:0c:fa:c0:a6:00:
         90:ac:53:d7:46:af:32:3f:f2:f5:bb:a8:22:83:d5:63:43:07:
         d0:e3:9c:4b:b7:24:0a:bd:46:f1:07:dd:e1:35:a0:9d:cf:dd:
         82:82:6b:bc:61:06:32:e8:e9:da:3f:94:17:7f:12:e9:6e:e8:
         95:72:37:69:c8:ac:e5:a9:c5:c2:f0:65:84:17:02:43:d6:d4:
         fd:a6:6d:a1:90:41:40:ad:2a:e3:73:99:79:2a:fe:09:1b:77:
         18:fa:51:08:d8:06:0d:f7:53:2e:17:62:09:04:c3:c9:f1:e7:
         41:28:55:b2:e6:27:8b:6a:90:a0:18:dd:c5:72:d4:74:5c:af:
         19:33:df:f6:5d:c0:45:18:f9:e3:31:c9:53:f5:7d:82:3d:e6:
         f5:83:bd:d1:76:30:75:c6:4a:c7:fc:ee:56:0c:0a:80:30:e3:
         12:47:88:a7:6d:13:70:07:64:cb:b7:87:51:7f:16:49:a4:c7:
         ad:01:02:8c
-----BEGIN CERTIFICATE-----
MIIEGjCCAwKgAwIBAgIBAjANBgkqhkiG9w0BAQsFADBXMQswCQYDVQQGEwJERTEQ
MA4GA1UECBMHSGFtYnVyZzEUMBIGA1UEChMLaGF3LWhhbWJ1cmcxDDAKBgNVBAsT
A1NWUzESMBAGA1UEAxMJU3ViLUNBLTI0MB4XDTIyMDUzMDE4MDYyMVoXDTIzMDUy
NzE4MDYyMVowcTELMAkGA1UEBhMCREUxEDAOBgNVBAgTB0hhbWJ1cmcxFDASBgNV
BAoTC2hhdy1oYW1idXJnMQwwCgYDVQQLEwNTVlMxLDAqBgNVBAMTI3N2czI0LmZ1
bC5pbmZvcm1hdGlrLmhhdy1oYW1idXJnLmRlMIIBIjANBgkqhkiG9w0BAQEFAAOC
AQ8AMIIBCgKCAQEAyRzYLsin5bssfohsBWZ9kYR5CvU2in9p9lhkF1hN/UrSuUug
3AQW27OmLlQzBha1/VS3ALWsMUc9iIsmV8W/lduziYi8WCqhh9dG8CWeuYAXu3mb
R+ZB8Rihr53uS/eZfZAAIj3+5t5nhm8knzALNB2mAHTukMy+YgRXgmilKlSTPy3v
zg0R1mjYx9lIof0izmAQck3xaAX6L1GuAX1mKI274wF1oX74aYmtwB7wq++RFYbj
ppkyzwz4X+g0oQPuuuUQJPLTlA0j31FoNCSs8VK/7CYCl2OjV4rje3ouO2lbZVQ+
ax5XuRH21zKXWquXmTySQcaDkvMKaAITBKqbkQIDAQABo4HWMIHTMA4GA1UdDwEB
/wQEAwIFoDAJBgNVHRMEAjAAMB0GA1UdJQQWMBQGCCsGAQUFBwMBBggrBgEFBQcD
AjAdBgNVHQ4EFgQUH6vk3vF87kYPbxo0zOI1YW78PUIwHwYDVR0jBBgwFoAU+2uV
/Gs6SGqyxq3tcsADQlTOfXswVwYDVR0RBFAwToIjc3ZzMjQuZnVsLmluZm9ybWF0
aWsuaGF3LWhhbWJ1cmcuZGWCJ3d3dy5zdnMyNC5mdWwuaW5mb3JtYXRpay5oYXct
aGFtYnVyZy5kZTANBgkqhkiG9w0BAQsFAAOCAQEALjDJrKfi3hqZ+6qMNr1S00ue
pvY5DubZ2fouwqeJS2pqIGbjG7gBYxPgI0DYP0r91np6yi2TEsUJxP8RoR6CeiK4
/Qz6wKYAkKxT10avMj/y9buoIoPVY0MH0OOcS7ckCr1G8Qfd4TWgnc/dgoJrvGEG
Mujp2j+UF38S6W7olXI3acis5anFwvBlhBcCQ9bU/aZtoZBBQK0q43OZeSr+CRt3
GPpRCNgGDfdTLhdiCQTDyfHnQShVsuYni2qQoBjdxXLUdFyvGTPf9l3ARRj54zHJ
U/V9gj3m9YO90XYwdcZKx/zuVgwKgDDjEkeIp20TcAdky7eHUX8WSaTHrQECjA==
-----END CERTIFICATE-----
