Certificate:
    Data:
        Version: 3 (0x2)
        Serial Number: 2 (0x2)
        Signature Algorithm: sha256WithRSAEncryption
        Issuer: C=DE, ST=Hamburg, O=haw-hamburg, CN=SVS Root CA
        Validity
            Not Before: Jul  2 16:58:22 2022 GMT
            Not After : Jul  2 16:58:22 2023 GMT
        Subject: C=DE, ST=Hamburg, O=haw-hamburg, OU=SVS, CN=Sub-CA-24
        Subject Public Key Info:
            Public Key Algorithm: rsaEncryption
                RSA Public-Key: (4096 bit)
                Modulus:
                    00:9b:6a:aa:e7:da:7a:62:f2:b3:a3:2a:b5:32:f1:
                    d6:ee:a0:04:6b:2a:65:8f:b2:cc:f6:55:b1:c9:bb:
                    ad:97:d1:16:12:27:1f:b5:24:44:92:c4:e7:8c:48:
                    a9:78:7b:bf:bf:eb:bd:0e:aa:69:24:67:95:5f:5c:
                    6c:42:e7:8e:27:25:3f:4c:48:9c:4d:28:37:b8:c1:
                    ba:d8:bb:07:02:54:2d:4d:03:ff:5b:ab:91:e5:f1:
                    af:4d:67:ab:58:db:0d:61:a2:9c:1b:e0:40:f6:88:
                    0b:49:60:c5:8c:95:e3:f1:d1:d9:95:b9:9a:13:41:
                    23:18:5f:2e:7a:21:5a:bf:0a:82:a0:76:2c:3f:ad:
                    68:0c:c6:02:4e:7e:f8:de:b5:72:9e:52:04:53:aa:
                    42:58:44:cc:9a:10:33:b5:9a:11:92:9e:30:d0:41:
                    6f:19:17:f8:ce:71:fd:9b:1f:56:d1:dd:82:2b:48:
                    d9:56:6f:5e:f9:ab:68:b2:1b:8f:ac:ea:2c:8f:7b:
                    c1:94:7c:2b:5c:6b:3b:d8:fd:ef:38:65:7e:c6:d5:
                    2d:42:ea:1a:a2:1c:72:db:d8:87:34:c4:39:cd:54:
                    33:2a:e2:2e:04:2a:45:94:30:04:2d:77:ed:bc:82:
                    83:a6:d4:24:db:d4:a7:bc:b6:69:c0:f9:62:9f:54:
                    82:0a:19:4d:22:a5:c2:3f:aa:2f:93:06:2e:34:81:
                    aa:d5:a5:47:97:0b:80:c1:7d:09:67:5b:b8:54:90:
                    e0:74:df:e6:d2:78:f7:e3:65:48:cd:c3:95:50:52:
                    3b:7a:b0:3a:ba:fc:2a:f8:01:41:dc:64:d2:68:6c:
                    79:95:d0:8f:f6:f1:63:f2:54:5e:2b:76:d2:cc:d7:
                    54:0a:02:c7:74:54:e8:5a:64:13:b5:a2:5a:cb:5b:
                    ad:be:41:de:20:43:9e:93:bb:c1:df:8d:63:49:ac:
                    3a:3f:fe:e1:b6:da:77:f8:1d:f1:73:26:b4:f9:d6:
                    0f:d1:bb:e4:80:4e:5f:7e:cd:79:43:de:61:2d:9d:
                    cd:12:11:34:dc:5c:25:1c:3c:89:11:1c:65:0a:29:
                    b0:d9:76:10:a9:5e:3e:03:33:ed:a9:72:26:d0:1e:
                    4a:2b:6d:5d:29:c1:b1:af:0e:21:14:39:17:72:d0:
                    3d:81:6d:c0:c2:cd:a4:33:b9:b3:bd:c7:a1:9a:3e:
                    00:12:ab:72:4f:2a:df:fa:83:39:05:06:ab:5c:cd:
                    40:d0:3f:9c:a9:e8:b2:b7:81:1d:6c:7e:f9:1a:0f:
                    b2:36:05:31:26:53:73:2b:71:75:54:53:a7:13:f2:
                    0c:9f:ed:28:f0:28:8a:ab:d5:b5:a3:0b:a0:51:10:
                    1c:8c:3b
                Exponent: 65537 (0x10001)
        X509v3 extensions:
            X509v3 Key Usage: critical
                Certificate Sign, CRL Sign
            X509v3 Basic Constraints: critical
                CA:TRUE, pathlen:0
            X509v3 Subject Key Identifier: 
                7D:D4:67:EB:85:9A:F5:D5:77:B9:13:F3:91:7E:46:FD:9A:94:DD:CA
            X509v3 Authority Key Identifier: 
                keyid:A6:78:CA:EA:B8:9A:C7:E4:9C:AB:C2:1D:00:F6:D7:07:34:94:C7:ED

            X509v3 CRL Distribution Points: 

                Full Name:
                  URI:http://svs24.ful.informatik.haw-hamburg.de/root-ca.crl

    Signature Algorithm: sha256WithRSAEncryption
         1e:bd:d5:29:88:b3:cf:cf:a0:18:4b:d2:fe:56:d8:b1:fb:02:
         8e:59:34:a8:98:5a:4d:e4:0e:75:e8:ff:39:3f:9d:70:73:2d:
         62:ff:53:1e:70:8c:be:79:75:ed:5a:11:5a:ba:ee:59:af:2e:
         d5:18:0b:57:7c:b8:a1:00:5a:32:46:5c:46:8a:fc:b6:d4:ef:
         5d:a5:1a:a5:5b:59:9c:bb:7e:e3:e3:aa:34:49:fd:f5:19:a5:
         fe:21:b7:f2:f8:f2:1f:1c:58:30:8a:d4:ba:8c:49:59:8b:f4:
         11:03:75:e1:5e:14:cc:6f:97:4a:81:c8:d1:93:73:54:05:da:
         44:ec:20:8f:a4:5d:57:00:f9:bd:89:c8:04:71:bd:c2:1a:17:
         cd:ca:7f:eb:e7:ba:3b:d1:a3:a5:f5:e8:25:9e:b4:27:fe:2b:
         e6:3b:2a:b8:b8:8f:2a:a9:00:6e:47:a5:16:d7:9e:e7:61:ac:
         1d:35:be:05:f4:00:da:95:01:ee:ad:1e:d0:48:73:c6:07:48:
         01:fa:ba:19:97:ec:c9:27:65:b5:d9:77:39:9f:c0:fe:84:0c:
         53:76:29:ca:c2:e9:d6:ce:44:31:b0:8b:0f:99:cd:09:23:a8:
         58:b7:a6:08:a1:24:de:fd:b2:ce:c7:b3:fe:ea:fd:ed:81:06:
         95:46:be:f1:14:05:14:b8:95:28:cb:0d:a3:6a:58:60:70:32:
         22:89:14:44:98:8b:8e:93:d7:82:51:2e:65:83:e7:c8:13:23:
         fc:eb:59:06:5a:c7:58:89:41:65:b2:4d:9c:bc:42:0f:ce:e4:
         48:04:fe:07:73:d4:24:9b:b4:5a:f6:1c:51:b2:b7:eb:98:06:
         b0:94:13:b3:ba:41:a6:c0:17:96:29:d4:97:c2:f0:41:b0:15:
         e7:72:b3:d9:78:ec:48:99:b4:c5:44:ff:40:8e:05:6a:88:0a:
         cc:8e:80:07:7f:ae:d4:43:73:e9:63:69:56:22:3e:ed:74:93:
         d6:db:af:1c:39:b2:7c:72:74:18:da:2d:d8:9c:6c:af:13:8f:
         8a:4d:96:00:2a:1b:6a:86:9c:f4:5e:aa:ec:ac:11:94:1d:57:
         7a:aa:93:26:20:da:74:c4:ea:14:c3:d0:4f:41:5b:a6:50:2c:
         c2:ce:8d:02:cc:44:8d:91:b0:b9:c3:65:91:bf:e2:31:e6:28:
         3c:15:3f:ad:85:2a:13:ba:19:f8:14:0b:72:79:33:a2:23:da:
         21:10:12:21:1e:c8:f7:fe:9c:56:d7:6b:84:c5:4e:84:b5:37:
         d7:b1:cb:cb:61:b8:e3:a8:f5:82:de:f8:ce:ac:34:10:1e:90:
         ad:78:12:e6:3f:da:61:0f
-----BEGIN CERTIFICATE-----
MIIFzjCCA7agAwIBAgIBAjANBgkqhkiG9w0BAQsFADBLMQswCQYDVQQGEwJERTEQ
MA4GA1UECAwHSGFtYnVyZzEUMBIGA1UECgwLaGF3LWhhbWJ1cmcxFDASBgNVBAMM
C1NWUyBSb290IENBMB4XDTIyMDcwMjE2NTgyMloXDTIzMDcwMjE2NTgyMlowVzEL
MAkGA1UEBhMCREUxEDAOBgNVBAgMB0hhbWJ1cmcxFDASBgNVBAoMC2hhdy1oYW1i
dXJnMQwwCgYDVQQLDANTVlMxEjAQBgNVBAMMCVN1Yi1DQS0yNDCCAiIwDQYJKoZI
hvcNAQEBBQADggIPADCCAgoCggIBAJtqqufaemLys6MqtTLx1u6gBGsqZY+yzPZV
scm7rZfRFhInH7UkRJLE54xIqXh7v7/rvQ6qaSRnlV9cbELnjiclP0xInE0oN7jB
uti7BwJULU0D/1urkeXxr01nq1jbDWGinBvgQPaIC0lgxYyV4/HR2ZW5mhNBIxhf
LnohWr8KgqB2LD+taAzGAk5++N61cp5SBFOqQlhEzJoQM7WaEZKeMNBBbxkX+M5x
/ZsfVtHdgitI2VZvXvmraLIbj6zqLI97wZR8K1xrO9j97zhlfsbVLULqGqIcctvY
hzTEOc1UMyriLgQqRZQwBC137byCg6bUJNvUp7y2acD5Yp9UggoZTSKlwj+qL5MG
LjSBqtWlR5cLgMF9CWdbuFSQ4HTf5tJ49+NlSM3DlVBSO3qwOrr8KvgBQdxk0mhs
eZXQj/bxY/JUXit20szXVAoCx3RU6FpkE7WiWstbrb5B3iBDnpO7wd+NY0msOj/+
4bbad/gd8XMmtPnWD9G75IBOX37NeUPeYS2dzRIRNNxcJRw8iREcZQopsNl2EKle
PgMz7alyJtAeSittXSnBsa8OIRQ5F3LQPYFtwMLNpDO5s73HoZo+ABKrck8q3/qD
OQUGq1zNQNA/nKnosreBHWx++RoPsjYFMSZTcytxdVRTpxPyDJ/tKPAoiqvVtaML
oFEQHIw7AgMBAAGjgbAwga0wDgYDVR0PAQH/BAQDAgEGMBIGA1UdEwEB/wQIMAYB
Af8CAQAwHQYDVR0OBBYEFH3UZ+uFmvXVd7kT85F+Rv2alN3KMB8GA1UdIwQYMBaA
FKZ4yuq4msfknKvCHQD21wc0lMftMEcGA1UdHwRAMD4wPKA6oDiGNmh0dHA6Ly9z
dnMyNC5mdWwuaW5mb3JtYXRpay5oYXctaGFtYnVyZy5kZS9yb290LWNhLmNybDAN
BgkqhkiG9w0BAQsFAAOCAgEAHr3VKYizz8+gGEvS/lbYsfsCjlk0qJhaTeQOdej/
OT+dcHMtYv9THnCMvnl17VoRWrruWa8u1RgLV3y4oQBaMkZcRor8ttTvXaUapVtZ
nLt+4+OqNEn99Rml/iG38vjyHxxYMIrUuoxJWYv0EQN14V4UzG+XSoHI0ZNzVAXa
ROwgj6RdVwD5vYnIBHG9whoXzcp/6+e6O9GjpfXoJZ60J/4r5jsquLiPKqkAbkel
Ftee52GsHTW+BfQA2pUB7q0e0EhzxgdIAfq6GZfsySdltdl3OZ/A/oQMU3YpysLp
1s5EMbCLD5nNCSOoWLemCKEk3v2yzsez/ur97YEGlUa+8RQFFLiVKMsNo2pYYHAy
IokURJiLjpPXglEuZYPnyBMj/OtZBlrHWIlBZbJNnLxCD87kSAT+B3PUJJu0WvYc
UbK365gGsJQTs7pBpsAXlinUl8LwQbAV53Kz2XjsSJm0xUT/QI4FaogKzI6AB3+u
1ENz6WNpViI+7XST1tuvHDmyfHJ0GNot2JxsrxOPik2WACobaoac9F6q7KwRlB1X
eqqTJiDadMTqFMPQT0FbplAsws6NAsxEjZGwucNlkb/iMeYoPBU/rYUqE7oZ+BQL
cnkzoiPaIRASIR7I9/6cVtdrhMVOhLU317HLy2G446j1gt74zqw0EB6QrXgS5j/a
YQ8=
-----END CERTIFICATE-----
