Certificate:
    Data:
        Version: 3 (0x2)
        Serial Number: 1 (0x1)
        Signature Algorithm: sha256WithRSAEncryption
        Issuer: C=DE, ST=Hamburg, O=haw-hamburg, OU=SVS, CN=Sub-CA-24
        Validity
            Not Before: Jul  2 16:58:26 2022 GMT
            Not After : Jun 29 16:58:26 2023 GMT
        Subject: C=DE, ST=Hamburg, O=haw-hamburg, OU=SVS, CN=svs24.ful.informatik.haw-hamburg.de
        Subject Public Key Info:
            Public Key Algorithm: rsaEncryption
                RSA Public-Key: (4096 bit)
                Modulus:
                    00:df:82:1e:e2:80:0d:b0:7a:05:7e:41:a0:e1:6e:
                    ec:97:40:63:42:df:03:80:e8:c6:6b:e3:69:75:38:
                    01:cd:19:d2:db:b0:52:a0:d1:25:33:7e:eb:3c:6f:
                    af:d0:c2:cc:29:49:0e:0e:22:f8:91:e0:e5:04:81:
                    7c:e2:40:77:6f:f0:54:9b:f1:f9:73:2c:6c:98:cf:
                    c0:4e:7f:d4:df:2b:ac:e4:8f:fa:bf:9d:9d:78:5b:
                    46:1f:49:4f:ca:97:97:e4:46:2c:75:14:8f:94:f3:
                    3f:00:6f:49:db:25:f2:6e:3d:97:ea:38:f5:55:b7:
                    32:7b:e9:93:93:70:aa:4d:c9:7d:5d:5c:24:bc:84:
                    d8:ac:fc:8a:73:43:82:c1:6b:c6:10:3c:bc:1a:af:
                    5d:c9:fa:b4:af:85:10:d7:ac:a7:27:55:1e:1a:49:
                    4c:ab:3c:19:17:48:54:c1:01:fe:e8:3d:a1:aa:e1:
                    46:e3:c9:af:b6:d4:ac:f4:84:7e:78:06:66:31:70:
                    91:e0:ee:c3:f3:9d:bc:35:2e:5b:2b:97:a7:0f:3d:
                    26:61:4b:45:e6:43:a6:fc:a2:9f:f4:b2:7e:e1:08:
                    8a:d3:cf:91:72:d9:8c:37:1c:8f:c1:78:be:0a:93:
                    b1:81:e6:84:fc:6b:28:09:94:b3:98:df:cd:3e:3d:
                    b6:a6:c8:79:52:69:8a:c6:35:e6:27:6c:35:26:17:
                    1f:29:42:85:1f:c5:ba:72:87:98:10:32:fc:47:fb:
                    3b:78:90:74:d9:7b:72:f0:74:65:3b:40:56:f4:87:
                    17:a9:56:8c:7e:08:35:05:5c:dd:f3:9f:31:75:e0:
                    c3:71:f3:c1:0a:cd:61:b0:e1:73:7d:fe:0e:b2:80:
                    30:a8:49:5e:3b:70:1c:14:9e:58:ed:90:5c:a4:2b:
                    8a:dd:5a:13:b5:c7:8d:45:e1:8e:9b:20:ff:87:e4:
                    35:31:98:d8:47:b4:04:ad:e6:a8:5a:76:5f:9d:ef:
                    13:b8:45:34:50:87:87:15:63:ae:48:8f:36:ba:8d:
                    f3:23:b7:54:32:c6:7e:ca:5f:e2:e1:0f:29:46:bb:
                    12:06:97:93:39:95:9a:29:96:1d:a8:0d:fc:c4:ac:
                    ae:99:74:4b:07:b5:85:f5:41:30:03:77:47:87:41:
                    62:e9:d7:a4:f5:70:8b:d9:c1:ef:f1:e8:dd:19:1a:
                    8c:c5:39:10:f8:f7:fb:46:39:48:be:6f:34:1f:75:
                    37:46:fe:1c:35:e6:63:b7:84:f4:e7:81:d5:16:40:
                    8e:a8:90:f1:3e:07:fc:42:db:65:17:90:3d:c7:a6:
                    0f:7e:d7:ae:19:9e:26:ac:77:8b:3e:8e:98:c8:2b:
                    ea:de:55
                Exponent: 65537 (0x10001)
        X509v3 extensions:
            X509v3 Key Usage: critical
                Digital Signature, Key Encipherment
            X509v3 Basic Constraints: 
                CA:FALSE
            X509v3 Extended Key Usage: 
                TLS Web Server Authentication, TLS Web Client Authentication
            X509v3 Subject Key Identifier: 
                BC:2C:BF:CB:23:EB:AD:91:5F:BD:B8:5D:02:D8:8F:A4:78:DF:BF:DC
            X509v3 Authority Key Identifier: 
                keyid:7D:D4:67:EB:85:9A:F5:D5:77:B9:13:F3:91:7E:46:FD:9A:94:DD:CA

            X509v3 CRL Distribution Points: 

                Full Name:
                  URI:http://svs24.ful.informatik.haw-hamburg.de/tls-ca.crl

            X509v3 Subject Alternative Name: 
                DNS:svs24.ful.informatik.haw-hamburg.de, DNS:www.svs24.ful.informatik.haw-hamburg.de
    Signature Algorithm: sha256WithRSAEncryption
         2a:df:5b:bd:e3:3c:d2:f5:e5:13:52:79:73:f0:be:9a:7b:34:
         4b:00:94:42:05:93:4a:99:9b:6b:ec:12:8e:b5:5e:9c:15:1d:
         f6:8e:62:7a:d6:c2:64:14:89:e4:01:b0:dd:6a:31:d3:b3:ea:
         39:67:f5:84:72:9e:af:d5:b9:01:47:f1:89:30:50:97:4a:fd:
         34:49:71:92:8d:f5:32:dc:fb:83:51:91:3e:b5:a2:74:fb:53:
         46:e2:4f:5a:9f:ff:d8:23:04:63:b8:ac:a5:c1:42:38:6e:35:
         e4:b3:85:33:7a:57:91:02:74:20:b5:06:9d:a2:5e:5c:03:0a:
         3d:b5:f0:6a:43:f9:21:e4:7d:1a:0f:bc:1f:3c:b3:81:3a:12:
         9c:01:12:4b:08:cd:bb:67:39:78:47:bb:20:bb:21:8b:1e:fb:
         fb:c1:d8:60:46:11:f0:d1:77:36:01:13:2b:cb:21:79:d7:14:
         c7:98:ac:df:3a:03:9e:00:35:2b:c9:fc:76:d2:bf:e3:58:6d:
         07:a0:b9:05:ff:b9:b4:81:71:32:ed:ee:e7:21:69:15:c6:91:
         d9:36:d5:70:91:e0:1b:42:7e:ac:0b:5e:1a:09:87:71:1c:ef:
         c0:7a:d4:14:54:bf:c7:37:84:2e:2f:4e:3e:da:e2:30:b4:d5:
         2b:90:bb:77:c1:f4:69:9e:39:5f:60:70:03:85:71:7f:60:af:
         15:47:82:e3:80:0c:41:40:1a:7f:a8:23:fd:0f:58:b0:cc:1d:
         81:00:80:ac:32:5b:0a:ec:a2:b8:8a:bb:cd:dc:54:21:2c:0d:
         c7:5f:02:9a:7f:27:68:db:7f:76:ac:e5:ab:65:61:5a:8e:1a:
         70:5d:78:65:57:af:e8:fe:16:0c:e9:35:25:57:cc:6d:98:3f:
         87:3b:9d:13:2a:14:56:9e:0c:10:b0:19:6d:ab:e8:42:1d:59:
         c5:ee:da:6c:39:2a:5b:03:71:92:62:20:42:4f:9c:48:4b:83:
         af:25:af:b6:f1:9b:23:73:11:96:57:aa:d8:67:9d:63:47:35:
         f5:c3:1c:3a:41:b4:28:b1:e0:23:86:70:2c:b1:bb:63:c9:6c:
         15:cd:01:ee:74:23:69:b9:fe:a5:b7:9b:02:af:4b:06:0e:11:
         d0:1d:15:fd:26:84:ea:5a:d7:30:81:18:44:a2:00:c8:73:14:
         15:2a:66:e0:0a:e7:b2:a1:51:14:2d:15:ef:b9:f2:52:55:d9:
         06:65:dc:5b:23:d2:b9:e3:5e:d4:18:d4:f6:a8:dd:31:62:63:
         e4:ed:e1:25:33:ad:ed:a3:35:5f:eb:9f:38:e2:eb:53:36:29:
         fe:af:da:dc:33:97:ad:56
-----BEGIN CERTIFICATE-----
MIIGZDCCBEygAwIBAgIBATANBgkqhkiG9w0BAQsFADBXMQswCQYDVQQGEwJERTEQ
MA4GA1UECAwHSGFtYnVyZzEUMBIGA1UECgwLaGF3LWhhbWJ1cmcxDDAKBgNVBAsM
A1NWUzESMBAGA1UEAwwJU3ViLUNBLTI0MB4XDTIyMDcwMjE2NTgyNloXDTIzMDYy
OTE2NTgyNlowcTELMAkGA1UEBhMCREUxEDAOBgNVBAgMB0hhbWJ1cmcxFDASBgNV
BAoMC2hhdy1oYW1idXJnMQwwCgYDVQQLDANTVlMxLDAqBgNVBAMMI3N2czI0LmZ1
bC5pbmZvcm1hdGlrLmhhdy1oYW1idXJnLmRlMIICIjANBgkqhkiG9w0BAQEFAAOC
Ag8AMIICCgKCAgEA34Ie4oANsHoFfkGg4W7sl0BjQt8DgOjGa+NpdTgBzRnS27BS
oNElM37rPG+v0MLMKUkODiL4keDlBIF84kB3b/BUm/H5cyxsmM/ATn/U3yus5I/6
v52deFtGH0lPypeX5EYsdRSPlPM/AG9J2yXybj2X6jj1Vbcye+mTk3CqTcl9XVwk
vITYrPyKc0OCwWvGEDy8Gq9dyfq0r4UQ16ynJ1UeGklMqzwZF0hUwQH+6D2hquFG
48mvttSs9IR+eAZmMXCR4O7D8528NS5bK5enDz0mYUtF5kOm/KKf9LJ+4QiK08+R
ctmMNxyPwXi+CpOxgeaE/GsoCZSzmN/NPj22psh5UmmKxjXmJ2w1JhcfKUKFH8W6
coeYEDL8R/s7eJB02Xty8HRlO0BW9IcXqVaMfgg1BVzd858xdeDDcfPBCs1hsOFz
ff4OsoAwqEleO3AcFJ5Y7ZBcpCuK3VoTtceNReGOmyD/h+Q1MZjYR7QEreaoWnZf
ne8TuEU0UIeHFWOuSI82uo3zI7dUMsZ+yl/i4Q8pRrsSBpeTOZWaKZYdqA38xKyu
mXRLB7WF9UEwA3dHh0Fi6dek9XCL2cHv8ejdGRqMxTkQ+Pf7RjlIvm80H3U3Rv4c
NeZjt4T054HVFkCOqJDxPgf8QttlF5A9x6YPfteuGZ4mrHeLPo6YyCvq3lUCAwEA
AaOCAR8wggEbMA4GA1UdDwEB/wQEAwIFoDAJBgNVHRMEAjAAMB0GA1UdJQQWMBQG
CCsGAQUFBwMBBggrBgEFBQcDAjAdBgNVHQ4EFgQUvCy/yyPrrZFfvbhdAtiPpHjf
v9wwHwYDVR0jBBgwFoAUfdRn64Wa9dV3uRPzkX5G/ZqU3cowRgYDVR0fBD8wPTA7
oDmgN4Y1aHR0cDovL3N2czI0LmZ1bC5pbmZvcm1hdGlrLmhhdy1oYW1idXJnLmRl
L3Rscy1jYS5jcmwwVwYDVR0RBFAwToIjc3ZzMjQuZnVsLmluZm9ybWF0aWsuaGF3
LWhhbWJ1cmcuZGWCJ3d3dy5zdnMyNC5mdWwuaW5mb3JtYXRpay5oYXctaGFtYnVy
Zy5kZTANBgkqhkiG9w0BAQsFAAOCAgEAKt9bveM80vXlE1J5c/C+mns0SwCUQgWT
Spmba+wSjrVenBUd9o5ietbCZBSJ5AGw3Wox07PqOWf1hHKer9W5AUfxiTBQl0r9
NElxko31Mtz7g1GRPrWidPtTRuJPWp//2CMEY7ispcFCOG415LOFM3pXkQJ0ILUG
naJeXAMKPbXwakP5IeR9Gg+8HzyzgToSnAESSwjNu2c5eEe7ILshix77+8HYYEYR
8NF3NgETK8shedcUx5is3zoDngA1K8n8dtK/41htB6C5Bf+5tIFxMu3u5yFpFcaR
2TbVcJHgG0J+rAteGgmHcRzvwHrUFFS/xzeELi9OPtriMLTVK5C7d8H0aZ45X2Bw
A4Vxf2CvFUeC44AMQUAaf6gj/Q9YsMwdgQCArDJbCuyiuIq7zdxUISwNx18Cmn8n
aNt/dqzlq2VhWo4acF14ZVev6P4WDOk1JVfMbZg/hzudEyoUVp4MELAZbavoQh1Z
xe7abDkqWwNxkmIgQk+cSEuDryWvtvGbI3MRlleq2GedY0c19cMcOkG0KLHgI4Zw
LLG7Y8lsFc0B7nQjabn+pbebAq9LBg4R0B0V/SaE6lrXMIEYRKIAyHMUFSpm4Arn
sqFRFC0V77nyUlXZBmXcWyPSueNe1BjU9qjdMWJj5O3hJTOt7aM1X+ufOOLrUzYp
/q/a3DOXrVY=
-----END CERTIFICATE-----
