Certificate:
    Data:
        Version: 3 (0x2)
        Serial Number: 1 (0x1)
        Signature Algorithm: sha256WithRSAEncryption
        Issuer: C=DE, ST=Hamburg, O=haw-hamburg, CN=SVS Root CA
        Validity
            Not Before: Jun 23 15:39:14 2022 GMT
            Not After : Dec 31 23:59:59 2030 GMT
        Subject: C=DE, ST=Hamburg, O=haw-hamburg, CN=SVS Root CA
        Subject Public Key Info:
            Public Key Algorithm: rsaEncryption
                RSA Public-Key: (2048 bit)
                Modulus:
                    00:ac:d7:d9:3f:03:87:dc:47:9f:ae:f3:5e:61:c0:
                    85:64:ed:a3:8b:cc:98:85:64:b0:67:78:2a:70:8d:
                    cc:59:77:72:49:65:82:1f:4c:5a:7e:fc:11:6b:27:
                    d7:b9:43:06:ed:90:0b:9e:63:68:eb:65:dd:47:2b:
                    cd:d4:16:75:47:53:9b:1b:74:e7:da:23:34:f0:e6:
                    c2:2b:63:c2:f4:10:6d:03:d0:75:d9:6a:4a:b4:4b:
                    d3:e9:3f:f7:1e:dd:e7:73:6d:fd:6f:5d:9b:ce:17:
                    dc:e3:b7:09:c5:ea:c5:0f:d5:bf:9f:a6:35:22:31:
                    d1:c9:bd:55:77:0c:06:aa:bf:89:97:99:66:74:08:
                    5c:52:98:46:9f:02:68:04:88:a9:0b:45:8c:15:6b:
                    06:6d:7e:9f:9f:cd:82:66:d7:1a:0a:7d:35:a8:cc:
                    c7:f1:23:a8:c5:19:8a:e6:75:1d:85:47:75:d6:c4:
                    0d:7b:80:92:7d:eb:a1:2b:f0:6f:25:96:52:80:cd:
                    57:d0:2e:02:91:5e:9f:a5:bc:f1:d3:5d:02:4b:7c:
                    26:68:62:a5:c4:bb:47:a4:18:07:f1:c7:56:e9:cc:
                    71:8e:49:8a:60:ad:03:4c:24:dc:ab:a3:13:79:28:
                    04:74:22:fa:d0:3c:d2:e1:df:91:2d:09:e3:dc:a8:
                    50:9f
                Exponent: 65537 (0x10001)
        X509v3 extensions:
            X509v3 Key Usage: critical
                Certificate Sign, CRL Sign
            X509v3 Basic Constraints: critical
                CA:TRUE
            X509v3 Subject Key Identifier: 
                B0:86:CE:9B:36:57:82:EE:99:93:00:4B:D3:EA:E1:D2:67:35:A0:F0
            X509v3 Authority Key Identifier: 
                keyid:B0:86:CE:9B:36:57:82:EE:99:93:00:4B:D3:EA:E1:D2:67:35:A0:F0

    Signature Algorithm: sha256WithRSAEncryption
         45:0c:bc:4e:25:ff:56:42:f5:84:50:88:f2:bc:4f:d8:9a:7e:
         09:1c:88:18:d3:28:ed:62:6e:b8:c0:ae:52:bf:49:21:ae:26:
         17:2f:a3:01:11:81:d4:b8:ba:70:72:d6:e7:15:a6:89:5f:7d:
         86:97:96:c1:74:d5:a2:a1:4e:17:95:79:31:68:28:74:e9:e0:
         d9:7d:27:59:aa:c6:67:23:e0:8c:fc:80:a0:52:dc:0d:9f:b5:
         8f:9a:14:3e:f4:52:58:27:b9:e2:fc:3e:f3:6f:4a:8a:a5:4f:
         4d:57:a7:a3:d1:41:04:ca:c1:f3:97:0a:76:3b:a6:f5:e7:23:
         37:e2:66:d5:68:c3:16:f4:86:07:6d:73:31:de:68:bb:01:18:
         67:07:74:27:21:b2:2e:44:f7:43:16:b1:55:1b:17:df:0b:d8:
         91:22:d7:5c:6e:1b:40:a4:e0:d2:b7:28:08:5e:f2:64:96:9d:
         71:6f:f2:11:44:e0:08:fd:eb:9c:a9:c0:02:56:16:56:fc:f8:
         cc:7d:14:1d:b1:12:9c:60:0a:c3:d8:87:eb:9c:f8:b2:81:72:
         48:01:48:84:7c:6b:c8:c5:43:06:f6:5c:26:98:74:17:75:77:
         83:b5:61:dc:75:4b:03:05:67:17:4e:e7:06:e1:e4:7a:99:d6:
         35:1e:22:1b
-----BEGIN CERTIFICATE-----
MIIDdDCCAlygAwIBAgIBATANBgkqhkiG9w0BAQsFADBLMQswCQYDVQQGEwJERTEQ
MA4GA1UECBMHSGFtYnVyZzEUMBIGA1UEChMLaGF3LWhhbWJ1cmcxFDASBgNVBAMT
C1NWUyBSb290IENBMB4XDTIyMDYyMzE1MzkxNFoXDTMwMTIzMTIzNTk1OVowSzEL
MAkGA1UEBhMCREUxEDAOBgNVBAgTB0hhbWJ1cmcxFDASBgNVBAoTC2hhdy1oYW1i
dXJnMRQwEgYDVQQDEwtTVlMgUm9vdCBDQTCCASIwDQYJKoZIhvcNAQEBBQADggEP
ADCCAQoCggEBAKzX2T8Dh9xHn67zXmHAhWTto4vMmIVksGd4KnCNzFl3ckllgh9M
Wn78EWsn17lDBu2QC55jaOtl3UcrzdQWdUdTmxt059ojNPDmwitjwvQQbQPQddlq
SrRL0+k/9x7d53Nt/W9dm84X3OO3CcXqxQ/Vv5+mNSIx0cm9VXcMBqq/iZeZZnQI
XFKYRp8CaASIqQtFjBVrBm1+n5/NgmbXGgp9NajMx/EjqMUZiuZ1HYVHddbEDXuA
kn3roSvwbyWWUoDNV9AuApFen6W88dNdAkt8JmhipcS7R6QYB/HHVunMcY5JimCt
A0wk3KujE3koBHQi+tA80uHfkS0J49yoUJ8CAwEAAaNjMGEwDgYDVR0PAQH/BAQD
AgEGMA8GA1UdEwEB/wQFMAMBAf8wHQYDVR0OBBYEFLCGzps2V4LumZMAS9Pq4dJn
NaDwMB8GA1UdIwQYMBaAFLCGzps2V4LumZMAS9Pq4dJnNaDwMA0GCSqGSIb3DQEB
CwUAA4IBAQBFDLxOJf9WQvWEUIjyvE/Ymn4JHIgY0yjtYm64wK5Sv0khriYXL6MB
EYHUuLpwctbnFaaJX32Gl5bBdNWioU4XlXkxaCh06eDZfSdZqsZnI+CM/ICgUtwN
n7WPmhQ+9FJYJ7ni/D7zb0qKpU9NV6ej0UEEysHzlwp2O6b15yM34mbVaMMW9IYH
bXMx3mi7ARhnB3QnIbIuRPdDFrFVGxffC9iRItdcbhtApODStygIXvJklp1xb/IR
ROAI/eucqcACVhZW/PjMfRQdsRKcYArD2IfrnPiygXJIAUiEfGvIxUMG9lwmmHQX
dXeDtWHcdUsDBWcXTucG4eR6mdY1HiIb
-----END CERTIFICATE-----
