Certificate:
    Data:
        Version: 3 (0x2)
        Serial Number: 1 (0x1)
        Signature Algorithm: sha256WithRSAEncryption
        Issuer: C=DE, ST=Hamburg, O=haw-hamburg, CN=SVS Root CA
        Validity
            Not Before: Jun 27 20:28:38 2022 GMT
            Not After : Dec 31 23:59:59 2030 GMT
        Subject: C=DE, ST=Hamburg, O=haw-hamburg, CN=SVS Root CA
        Subject Public Key Info:
            Public Key Algorithm: rsaEncryption
                RSA Public-Key: (4096 bit)
                Modulus:
                    00:97:50:03:58:cb:66:f6:4a:79:4b:a4:80:2d:33:
                    16:40:3f:de:95:56:52:42:65:51:1c:f9:52:08:5b:
                    eb:57:72:ce:3d:3a:17:c2:2e:3f:c1:21:22:5b:00:
                    9e:7a:01:99:2b:d8:7d:0c:1f:f0:3a:73:1a:6f:8a:
                    8e:fb:69:ff:7e:9a:68:f8:71:a5:78:b0:1d:f1:a9:
                    b8:cb:b0:76:5a:38:e6:5f:e6:14:55:5c:7f:66:5b:
                    53:cf:76:89:af:a0:5f:93:f3:f2:0e:97:be:cc:23:
                    80:be:00:e8:8f:e0:44:02:e1:41:e1:58:81:ca:d2:
                    db:60:aa:9e:77:e9:a3:7f:b9:0c:9e:a3:99:97:33:
                    a9:78:50:ba:b3:1f:fc:aa:5b:ed:f9:bb:59:eb:57:
                    bc:fa:c2:ed:77:a5:26:fd:8d:f7:88:88:bc:1b:68:
                    a4:d2:23:15:80:2c:8a:06:81:ca:99:1b:df:2a:58:
                    a9:a3:a7:c7:14:4f:7e:d4:76:61:8d:a8:5d:8f:50:
                    4f:6d:14:71:e2:96:6e:50:18:eb:ef:29:2a:04:26:
                    b4:fc:b8:43:41:0b:6a:9f:7b:a2:1f:46:7a:82:6a:
                    b4:5a:6f:44:9f:0b:cb:c4:e2:b4:5a:7e:be:ce:96:
                    1f:76:ab:d6:d1:a0:f0:aa:18:49:e0:eb:13:8b:7a:
                    d7:25:a3:be:ea:82:1c:c7:c8:a5:e4:56:da:cb:9f:
                    c7:2a:f2:85:81:0e:1c:be:a7:31:5b:e3:4e:4d:0b:
                    08:4d:1a:39:f3:93:0f:16:d3:cc:b9:68:34:ef:ad:
                    10:54:7c:f7:bb:34:3e:f2:3c:31:44:f5:52:64:30:
                    4e:6a:04:50:56:c6:a2:3d:f7:ee:87:fa:9b:5e:f6:
                    fc:a2:07:22:43:c4:db:62:09:ba:0f:54:f5:31:d6:
                    85:ed:2a:25:d1:c6:24:df:1e:fa:95:34:87:8d:6e:
                    5e:98:b8:f8:96:4d:32:eb:ce:de:88:48:88:78:ef:
                    3f:2e:55:96:18:65:c9:bb:ed:6f:48:7a:5c:37:94:
                    3d:25:cb:17:c6:81:2c:a3:a3:21:fa:17:94:22:14:
                    aa:49:88:b8:d7:6e:97:9a:fa:68:63:e5:a0:e9:ed:
                    4e:a9:b6:0b:ab:04:96:f2:37:dc:36:e8:85:43:b8:
                    09:89:8b:96:4d:1d:bc:5f:4a:90:dd:d6:3c:94:a6:
                    6e:06:7d:d7:b9:3a:9f:8d:e6:79:5c:73:6c:41:5e:
                    2e:73:42:a1:fa:13:81:66:a0:22:46:fe:be:13:88:
                    5b:e5:fa:ae:81:69:3c:6c:fc:5b:7b:a8:69:1d:f3:
                    50:0f:6d:38:49:da:c6:a7:43:e5:2d:12:0a:84:3c:
                    23:b3:e1
                Exponent: 65537 (0x10001)
        X509v3 extensions:
            X509v3 Key Usage: critical
                Certificate Sign, CRL Sign
            X509v3 Basic Constraints: critical
                CA:TRUE
            X509v3 Subject Key Identifier: 
                B5:F9:D7:76:B0:C3:00:42:87:14:D5:CB:24:F3:15:45:52:AF:5F:B9
            X509v3 Authority Key Identifier: 
                keyid:B5:F9:D7:76:B0:C3:00:42:87:14:D5:CB:24:F3:15:45:52:AF:5F:B9

    Signature Algorithm: sha256WithRSAEncryption
         51:96:4b:b8:69:1c:de:0a:c6:10:b4:ac:44:63:9d:cd:2c:99:
         3d:6b:91:30:08:7b:76:b7:f1:ae:47:5c:15:5f:00:9b:ac:70:
         9c:8c:01:7d:8a:6c:2b:a8:61:54:af:71:10:da:0b:6b:e7:00:
         3a:c2:20:25:e0:d6:72:fe:df:bf:4a:cd:e0:c4:41:5a:09:c8:
         df:6d:75:1e:83:4c:48:b3:26:11:3f:06:4a:96:65:d6:50:fe:
         73:b8:b8:fa:b3:df:44:cd:76:05:7d:c7:2a:46:63:d7:66:83:
         af:5b:35:85:28:64:f3:24:84:35:d0:26:05:7c:a7:40:27:89:
         e5:60:88:d1:01:0a:f8:a4:2c:97:5c:0d:c9:a4:b0:7c:5c:1f:
         4a:20:b8:ba:0f:97:75:01:62:38:82:0e:f8:74:d8:8e:d3:fd:
         71:4f:1d:6b:7b:44:e7:f1:c2:3c:41:ba:75:45:32:6d:bf:63:
         da:e3:17:ca:df:60:94:89:a7:e1:8e:d0:1a:4a:1e:c4:9b:74:
         b3:3e:a4:fe:b2:55:47:d1:1d:e2:ad:c3:b0:1f:a8:50:bc:08:
         50:50:3b:16:4b:53:d3:46:87:04:9f:74:63:39:9d:ae:3e:06:
         70:0d:bf:8d:07:32:11:c1:85:0d:af:97:f5:cc:fb:1c:49:3c:
         94:2c:ce:53:da:67:61:3c:f6:87:f2:ab:62:41:fd:f9:e8:b4:
         05:38:b2:c7:6e:51:5c:ca:8f:6c:ef:a4:58:2b:82:c3:1b:f9:
         f8:74:38:ae:1d:9b:25:04:4e:98:ad:2f:70:5e:cb:8b:b9:53:
         f9:aa:2b:6d:e0:2d:cd:99:a6:35:69:59:db:d2:b9:fe:be:61:
         db:3b:d7:6b:87:b3:09:d6:a0:29:94:62:2d:ef:36:fa:2a:1c:
         3e:c2:44:7f:14:ce:2d:52:48:1b:f0:6d:8b:e8:f2:75:ac:d4:
         ae:8e:4d:bf:1e:27:2d:ff:ec:20:a6:4b:20:9c:e4:24:0e:72:
         9e:17:61:0a:db:91:42:78:df:c5:d1:67:d2:ed:18:bc:30:26:
         f3:77:c9:31:90:f3:89:83:1e:aa:4e:ac:95:15:74:ec:a5:79:
         08:8d:6e:c2:51:17:50:21:16:06:50:54:0a:b0:99:b1:43:26:
         b6:2c:b0:b7:1f:20:56:37:21:cc:5b:2f:e7:70:20:d9:2d:94:
         be:79:82:f3:5d:08:5a:4f:4e:e9:93:d7:9f:4b:71:09:d7:04:
         16:8a:86:6e:85:95:4e:40:28:de:a1:70:ae:b2:08:91:55:4e:
         43:ec:4e:3d:7a:bd:6e:c6:42:9a:29:47:88:ee:87:ee:0d:be:
         4c:57:eb:9c:87:e3:92:0a
-----BEGIN CERTIFICATE-----
MIIFdDCCA1ygAwIBAgIBATANBgkqhkiG9w0BAQsFADBLMQswCQYDVQQGEwJERTEQ
MA4GA1UECBMHSGFtYnVyZzEUMBIGA1UEChMLaGF3LWhhbWJ1cmcxFDASBgNVBAMT
C1NWUyBSb290IENBMB4XDTIyMDYyNzIwMjgzOFoXDTMwMTIzMTIzNTk1OVowSzEL
MAkGA1UEBhMCREUxEDAOBgNVBAgTB0hhbWJ1cmcxFDASBgNVBAoTC2hhdy1oYW1i
dXJnMRQwEgYDVQQDEwtTVlMgUm9vdCBDQTCCAiIwDQYJKoZIhvcNAQEBBQADggIP
ADCCAgoCggIBAJdQA1jLZvZKeUukgC0zFkA/3pVWUkJlURz5Ughb61dyzj06F8Iu
P8EhIlsAnnoBmSvYfQwf8DpzGm+Kjvtp/36aaPhxpXiwHfGpuMuwdlo45l/mFFVc
f2ZbU892ia+gX5Pz8g6XvswjgL4A6I/gRALhQeFYgcrS22Cqnnfpo3+5DJ6jmZcz
qXhQurMf/Kpb7fm7WetXvPrC7XelJv2N94iIvBtopNIjFYAsigaBypkb3ypYqaOn
xxRPftR2YY2oXY9QT20UceKWblAY6+8pKgQmtPy4Q0ELap97oh9GeoJqtFpvRJ8L
y8TitFp+vs6WH3ar1tGg8KoYSeDrE4t61yWjvuqCHMfIpeRW2sufxyryhYEOHL6n
MVvjTk0LCE0aOfOTDxbTzLloNO+tEFR897s0PvI8MUT1UmQwTmoEUFbGoj337of6
m172/KIHIkPE22IJug9U9THWhe0qJdHGJN8e+pU0h41uXpi4+JZNMuvO3ohIiHjv
Py5Vlhhlybvtb0h6XDeUPSXLF8aBLKOjIfoXlCIUqkmIuNdul5r6aGPloOntTqm2
C6sElvI33DbohUO4CYmLlk0dvF9KkN3WPJSmbgZ917k6n43meVxzbEFeLnNCofoT
gWagIkb+vhOIW+X6roFpPGz8W3uoaR3zUA9tOEnaxqdD5S0SCoQ8I7PhAgMBAAGj
YzBhMA4GA1UdDwEB/wQEAwIBBjAPBgNVHRMBAf8EBTADAQH/MB0GA1UdDgQWBBS1
+dd2sMMAQocU1csk8xVFUq9fuTAfBgNVHSMEGDAWgBS1+dd2sMMAQocU1csk8xVF
Uq9fuTANBgkqhkiG9w0BAQsFAAOCAgEAUZZLuGkc3grGELSsRGOdzSyZPWuRMAh7
drfxrkdcFV8Am6xwnIwBfYpsK6hhVK9xENoLa+cAOsIgJeDWcv7fv0rN4MRBWgnI
3211HoNMSLMmET8GSpZl1lD+c7i4+rPfRM12BX3HKkZj12aDr1s1hShk8ySENdAm
BXynQCeJ5WCI0QEK+KQsl1wNyaSwfFwfSiC4ug+XdQFiOIIO+HTYjtP9cU8da3tE
5/HCPEG6dUUybb9j2uMXyt9glImn4Y7QGkoexJt0sz6k/rJVR9Ed4q3DsB+oULwI
UFA7FktT00aHBJ90Yzmdrj4GcA2/jQcyEcGFDa+X9cz7HEk8lCzOU9pnYTz2h/Kr
YkH9+ei0BTiyx25RXMqPbO+kWCuCwxv5+HQ4rh2bJQROmK0vcF7Li7lT+aorbeAt
zZmmNWlZ29K5/r5h2zvXa4ezCdagKZRiLe82+iocPsJEfxTOLVJIG/Bti+jydazU
ro5Nvx4nLf/sIKZLIJzkJA5ynhdhCtuRQnjfxdFn0u0YvDAm83fJMZDziYMeqk6s
lRV07KV5CI1uwlEXUCEWBlBUCrCZsUMmtiywtx8gVjchzFsv53Ag2S2UvnmC810I
Wk9O6ZPXn0txCdcEFoqGboWVTkAo3qFwrrIIkVVOQ+xOPXq9bsZCmilHiO6H7g2+
TFfrnIfjkgo=
-----END CERTIFICATE-----
