Certificate:
    Data:
        Version: 3 (0x2)
        Serial Number: 1 (0x1)
        Signature Algorithm: sha256WithRSAEncryption
        Issuer: C=DE, ST=Hamburg, O=haw-hamburg, CN=SVS Root CA
        Validity
            Not Before: Jul  2 16:08:49 2022 GMT
            Not After : Dec 31 23:59:59 2030 GMT
        Subject: C=DE, ST=Hamburg, O=haw-hamburg, CN=SVS Root CA
        Subject Public Key Info:
            Public Key Algorithm: rsaEncryption
                RSA Public-Key: (4096 bit)
                Modulus:
                    00:d9:b8:34:6b:fa:3c:37:1a:11:75:3b:5e:08:ef:
                    cb:8d:c5:9f:4b:0e:4e:e7:7f:2a:7a:18:18:5e:dd:
                    0b:02:5b:02:8a:70:12:04:c3:0e:ff:10:fb:0b:e3:
                    48:4f:19:56:ca:5b:19:cd:c6:38:86:c5:cd:72:fb:
                    a0:13:6b:1b:fa:af:24:79:65:85:c5:08:71:c2:ab:
                    7d:29:ae:57:e9:a2:75:98:cc:81:59:22:3d:e8:4e:
                    49:12:31:88:78:0a:29:f8:87:e1:27:5b:33:d8:56:
                    ed:4d:51:ad:88:a0:b0:ce:7f:75:58:d4:50:e5:73:
                    46:a5:34:b1:e8:df:64:ef:07:ee:6c:8e:da:51:4f:
                    7d:bd:cf:ee:e2:92:21:0d:3a:fe:64:a4:72:2a:82:
                    fc:70:d5:ae:f1:f0:9d:46:de:0a:87:32:94:aa:34:
                    c7:73:0e:cf:15:22:08:3a:66:92:0c:6d:44:db:4d:
                    a9:94:94:41:36:ac:6a:55:8b:04:99:c2:da:35:6b:
                    f1:1b:0b:fd:99:92:2e:ca:00:16:d3:cb:08:26:77:
                    49:81:18:7b:96:76:12:49:40:3f:f0:1d:7f:51:e2:
                    e5:b0:28:51:32:6d:96:fd:77:17:5e:31:27:db:28:
                    d0:75:13:8f:88:2a:ed:d8:39:ce:0a:b4:5e:46:fa:
                    91:c3:06:f7:69:95:bd:b7:9e:bf:dd:82:c6:b4:1a:
                    90:5a:44:db:c1:50:23:5a:b3:05:c8:03:a6:53:6d:
                    99:6d:93:d8:e8:c1:1c:e5:c0:4a:5c:04:bc:9a:f8:
                    a0:1d:7e:f3:48:1c:f6:cf:ca:16:8a:58:4f:f6:19:
                    db:e8:ac:f7:68:4a:9b:22:ec:28:5b:76:99:9a:3a:
                    91:b7:6a:c9:f8:10:41:b3:97:0e:9c:d8:54:51:c7:
                    c0:92:cb:dd:6d:c6:f8:d4:20:bc:9c:b6:67:cd:68:
                    2a:00:c2:5b:fe:88:aa:65:e2:6a:42:52:bb:e1:c3:
                    05:5f:cb:08:a8:d0:c0:22:91:88:b4:24:67:df:91:
                    23:fa:22:3c:2a:f8:a1:e7:3c:9f:32:75:05:e0:5e:
                    55:f0:70:b1:d9:eb:49:3a:20:ec:d9:47:22:6a:ed:
                    55:ed:61:87:a7:6b:b5:bb:a4:81:ea:fd:a9:66:25:
                    5d:2a:04:bb:cf:83:15:de:18:49:2a:59:57:f2:dd:
                    1c:28:da:ab:e6:b3:63:57:56:78:be:60:1c:aa:a3:
                    73:cf:43:25:1e:f4:e0:1c:90:cb:e8:2b:c8:c3:ee:
                    1c:0a:bd:f5:3d:21:61:2e:3c:38:35:f0:54:f7:1b:
                    12:02:e1:e0:df:91:c5:46:2a:ea:da:44:de:75:b1:
                    8d:a3:bf
                Exponent: 65537 (0x10001)
        X509v3 extensions:
            X509v3 Key Usage: critical
                Certificate Sign, CRL Sign
            X509v3 Basic Constraints: critical
                CA:TRUE
            X509v3 Subject Key Identifier: 
                3F:6F:A9:3A:76:DA:D9:BB:93:51:D4:E0:A6:C6:9C:87:D3:BF:40:99
            X509v3 Authority Key Identifier: 
                keyid:3F:6F:A9:3A:76:DA:D9:BB:93:51:D4:E0:A6:C6:9C:87:D3:BF:40:99

    Signature Algorithm: sha256WithRSAEncryption
         3f:f0:9c:82:90:44:23:42:6c:9e:a5:0d:b3:a1:45:01:f4:a4:
         f0:b1:fa:de:3d:77:0d:fe:ed:ac:a3:a3:59:92:11:9e:9e:b0:
         8a:04:33:08:70:c4:0d:9a:fa:95:7d:ae:4e:4c:ee:6c:4c:07:
         13:e1:93:fd:6d:b0:e1:fe:aa:23:47:42:45:ce:4e:05:7a:f9:
         19:95:61:ac:b5:f9:35:02:1d:a9:16:2e:be:94:e9:6b:6b:f8:
         82:bf:c8:38:24:f4:4f:29:f1:5a:b2:38:76:eb:62:0c:56:f9:
         f0:1e:34:19:c4:04:74:1f:a6:01:55:16:ee:a4:6d:d3:34:34:
         1c:3e:f1:06:46:0a:1c:fb:53:90:b7:96:1a:d2:78:ef:c2:b2:
         3f:76:82:a2:1b:09:60:a6:2f:20:13:55:52:ce:37:5a:f2:1a:
         aa:01:b9:bf:7a:ca:8b:28:2a:a5:eb:f4:f9:ea:45:c2:32:f7:
         94:d8:94:87:92:75:7d:2a:e2:41:ed:41:f8:ad:a5:fb:81:c7:
         47:92:f6:8f:d7:f5:51:be:8c:e9:45:b5:24:d0:9e:4a:d4:f5:
         fc:ea:ba:45:87:88:3e:16:f5:ea:5c:87:84:a0:fb:86:98:01:
         86:e5:21:83:5c:73:9f:ee:d4:5b:e6:5f:eb:ad:2a:3f:e6:b2:
         4b:46:8d:6d:6a:fb:91:f3:7e:d8:86:54:65:e3:88:2e:78:39:
         5d:72:85:05:ac:6a:91:f4:63:aa:57:d2:ee:46:e6:f3:4a:c3:
         17:37:bc:e4:97:93:f8:ce:be:f3:50:c7:f3:44:16:16:63:eb:
         49:5d:47:d9:1e:cb:b4:25:87:8a:cf:bd:ae:dd:a6:3d:4e:e0:
         d3:7e:91:68:90:61:06:ea:1b:26:1c:57:24:ec:f9:42:d5:8f:
         08:b2:8e:db:ee:52:b2:8f:92:7e:3c:ff:c9:54:b3:b6:37:85:
         96:39:77:7f:b6:11:57:7e:dc:61:4c:25:82:5a:db:f3:cd:33:
         a4:c3:90:e0:d0:0f:e6:18:86:56:c8:e0:d6:d0:31:06:e1:c1:
         10:30:24:0e:ef:8c:61:44:72:fd:35:b6:7c:df:0e:e7:8e:a0:
         af:93:12:7f:2c:bf:5f:10:9c:25:75:51:02:41:a9:35:eb:30:
         17:c9:c7:c5:06:4c:14:86:46:90:3d:1a:47:29:1e:9c:77:d0:
         2f:09:c7:0b:79:03:7b:6f:9d:50:97:03:27:63:0f:c8:42:20:
         27:2a:ed:8d:5c:ce:62:0d:ec:e5:3e:01:4a:b8:3b:66:22:3e:
         ac:48:90:09:59:82:b0:24:0e:b8:8c:6b:27:45:20:c1:b2:33:
         86:b0:83:d4:35:dc:64:a3
-----BEGIN CERTIFICATE-----
MIIFdDCCA1ygAwIBAgIBATANBgkqhkiG9w0BAQsFADBLMQswCQYDVQQGEwJERTEQ
MA4GA1UECAwHSGFtYnVyZzEUMBIGA1UECgwLaGF3LWhhbWJ1cmcxFDASBgNVBAMM
C1NWUyBSb290IENBMB4XDTIyMDcwMjE2MDg0OVoXDTMwMTIzMTIzNTk1OVowSzEL
MAkGA1UEBhMCREUxEDAOBgNVBAgMB0hhbWJ1cmcxFDASBgNVBAoMC2hhdy1oYW1i
dXJnMRQwEgYDVQQDDAtTVlMgUm9vdCBDQTCCAiIwDQYJKoZIhvcNAQEBBQADggIP
ADCCAgoCggIBANm4NGv6PDcaEXU7Xgjvy43Fn0sOTud/KnoYGF7dCwJbAopwEgTD
Dv8Q+wvjSE8ZVspbGc3GOIbFzXL7oBNrG/qvJHllhcUIccKrfSmuV+midZjMgVki
PehOSRIxiHgKKfiH4SdbM9hW7U1RrYigsM5/dVjUUOVzRqU0sejfZO8H7myO2lFP
fb3P7uKSIQ06/mSkciqC/HDVrvHwnUbeCocylKo0x3MOzxUiCDpmkgxtRNtNqZSU
QTasalWLBJnC2jVr8RsL/ZmSLsoAFtPLCCZ3SYEYe5Z2EklAP/Adf1Hi5bAoUTJt
lv13F14xJ9so0HUTj4gq7dg5zgq0Xkb6kcMG92mVvbeev92CxrQakFpE28FQI1qz
BcgDplNtmW2T2OjBHOXASlwEvJr4oB1+80gc9s/KFopYT/YZ2+is92hKmyLsKFt2
mZo6kbdqyfgQQbOXDpzYVFHHwJLL3W3G+NQgvJy2Z81oKgDCW/6IqmXiakJSu+HD
BV/LCKjQwCKRiLQkZ9+RI/oiPCr4oec8nzJ1BeBeVfBwsdnrSTog7NlHImrtVe1h
h6drtbukger9qWYlXSoEu8+DFd4YSSpZV/LdHCjaq+azY1dWeL5gHKqjc89DJR70
4ByQy+gryMPuHAq99T0hYS48ODXwVPcbEgLh4N+RxUYq6tpE3nWxjaO/AgMBAAGj
YzBhMA4GA1UdDwEB/wQEAwIBBjAPBgNVHRMBAf8EBTADAQH/MB0GA1UdDgQWBBQ/
b6k6dtrZu5NR1OCmxpyH079AmTAfBgNVHSMEGDAWgBQ/b6k6dtrZu5NR1OCmxpyH
079AmTANBgkqhkiG9w0BAQsFAAOCAgEAP/CcgpBEI0JsnqUNs6FFAfSk8LH63j13
Df7trKOjWZIRnp6wigQzCHDEDZr6lX2uTkzubEwHE+GT/W2w4f6qI0dCRc5OBXr5
GZVhrLX5NQIdqRYuvpTpa2v4gr/IOCT0TynxWrI4dutiDFb58B40GcQEdB+mAVUW
7qRt0zQ0HD7xBkYKHPtTkLeWGtJ478KyP3aCohsJYKYvIBNVUs43WvIaqgG5v3rK
iygqpev0+epFwjL3lNiUh5J1fSriQe1B+K2l+4HHR5L2j9f1Ub6M6UW1JNCeStT1
/Oq6RYeIPhb16lyHhKD7hpgBhuUhg1xzn+7UW+Zf660qP+ayS0aNbWr7kfN+2IZU
ZeOILng5XXKFBaxqkfRjqlfS7kbm80rDFze85JeT+M6+81DH80QWFmPrSV1H2R7L
tCWHis+9rt2mPU7g036RaJBhBuobJhxXJOz5QtWPCLKO2+5Sso+Sfjz/yVSztjeF
ljl3f7YRV37cYUwlglrb880zpMOQ4NAP5hiGVsjg1tAxBuHBEDAkDu+MYURy/TW2
fN8O546gr5MSfyy/XxCcJXVRAkGpNeswF8nHxQZMFIZGkD0aRykenHfQLwnHC3kD
e2+dUJcDJ2MPyEIgJyrtjVzOYg3s5T4BSrg7ZiI+rEiQCVmCsCQOuIxrJ0UgwbIz
hrCD1DXcZKM=
-----END CERTIFICATE-----
