Certificate:
    Data:
        Version: 3 (0x2)
        Serial Number: 1 (0x1)
        Signature Algorithm: sha256WithRSAEncryption
        Issuer: C=DE, ST=Hamburg, O=haw-hamburg, CN=SVS Root CA
        Validity
            Not Before: Jun 23 15:00:22 2022 GMT
            Not After : Dec 31 23:59:59 2030 GMT
        Subject: C=DE, ST=Hamburg, O=haw-hamburg, CN=SVS Root CA
        Subject Public Key Info:
            Public Key Algorithm: rsaEncryption
                RSA Public-Key: (2048 bit)
                Modulus:
                    00:b5:4a:7f:24:9b:d5:4f:94:14:b6:08:f1:05:45:
                    b3:aa:c7:c5:32:c6:c1:63:24:39:c4:ce:bc:ac:bd:
                    85:46:1b:2f:67:c6:94:76:61:72:9d:d7:ad:72:f9:
                    eb:70:bb:17:a0:76:b8:91:78:99:37:27:b0:3e:26:
                    16:39:e9:d2:73:f1:1e:ad:02:c6:ef:50:ee:fe:26:
                    9e:79:70:38:c9:7b:90:df:a0:c8:2b:e8:7c:f8:b3:
                    9c:0d:89:49:c4:35:bb:ee:39:f6:b9:fd:7b:44:f9:
                    37:af:91:fb:9c:5a:34:7d:fc:6d:7a:0b:e3:60:9f:
                    d7:b0:7c:bf:a8:83:a6:80:58:c5:52:c5:ed:03:a3:
                    05:20:b1:07:10:8b:a4:3a:e7:5f:cc:2d:8c:ac:01:
                    f6:11:9c:b2:cc:c2:72:3c:88:0d:5d:b5:5b:54:b4:
                    e8:8b:09:2a:85:1d:08:91:df:1d:34:6f:0c:56:46:
                    28:7f:d9:6f:5b:ab:99:47:1e:b4:0b:cb:f9:f4:23:
                    17:9a:1e:b1:89:bc:15:70:e0:e7:7d:e0:37:a4:dd:
                    92:5e:c4:94:59:86:b6:38:6a:00:fc:67:db:90:f3:
                    c2:9d:d1:10:63:05:ef:d4:d9:cb:c2:f3:55:56:5e:
                    f5:bd:69:a0:08:92:f2:ee:c6:c1:7e:e9:17:d2:f5:
                    ee:db
                Exponent: 65537 (0x10001)
        X509v3 extensions:
            X509v3 Key Usage: critical
                Certificate Sign, CRL Sign
            X509v3 Basic Constraints: critical
                CA:TRUE
            X509v3 Subject Key Identifier: 
                61:50:7D:60:23:41:17:E9:FF:D9:6F:F3:51:18:49:DD:EF:C3:E6:7A
            X509v3 Authority Key Identifier: 
                keyid:61:50:7D:60:23:41:17:E9:FF:D9:6F:F3:51:18:49:DD:EF:C3:E6:7A

    Signature Algorithm: sha256WithRSAEncryption
         a3:43:38:4b:0c:c4:2b:b5:8c:f3:30:e5:0a:02:24:5e:d8:d0:
         14:bc:06:ff:d0:dc:77:1f:d8:e1:32:5e:43:ec:5b:0e:62:f6:
         37:16:e3:60:1d:1a:15:95:ca:1a:77:d7:97:19:dc:8f:9b:b9:
         3d:b8:e2:3e:f0:66:3b:21:c3:21:dd:24:bb:af:ac:a6:8b:0c:
         d9:e3:f2:cc:5e:5d:c7:cc:47:c8:4a:72:05:73:1b:fb:36:fc:
         5b:c4:47:60:39:1c:de:9a:96:48:9d:a5:fd:58:fd:30:4b:87:
         e7:f5:93:d1:88:fc:3f:8a:6d:19:b4:3d:9c:69:14:d2:87:3d:
         dc:ba:da:d8:9f:8c:80:41:91:6d:e3:9b:0e:ad:15:54:75:71:
         01:6e:99:d1:82:05:2b:30:3b:f8:f6:99:80:03:20:4e:2d:22:
         d8:55:35:e0:2d:4d:96:c6:da:68:a2:15:06:79:46:87:7a:0e:
         34:7b:7c:f9:d9:ad:2f:b4:66:06:55:82:fa:6b:75:ed:6b:71:
         a5:5b:51:3f:41:98:45:5d:21:02:8d:6f:e2:78:c5:c1:7a:12:
         d6:f5:36:c7:ee:36:00:91:49:6d:40:f5:76:4b:17:d3:49:7f:
         11:6a:da:11:12:10:9e:f1:57:6b:a3:e5:3d:1a:a8:e1:c1:b1:
         3d:be:55:cf
-----BEGIN CERTIFICATE-----
MIIDdDCCAlygAwIBAgIBATANBgkqhkiG9w0BAQsFADBLMQswCQYDVQQGEwJERTEQ
MA4GA1UECBMHSGFtYnVyZzEUMBIGA1UEChMLaGF3LWhhbWJ1cmcxFDASBgNVBAMT
C1NWUyBSb290IENBMB4XDTIyMDYyMzE1MDAyMloXDTMwMTIzMTIzNTk1OVowSzEL
MAkGA1UEBhMCREUxEDAOBgNVBAgTB0hhbWJ1cmcxFDASBgNVBAoTC2hhdy1oYW1i
dXJnMRQwEgYDVQQDEwtTVlMgUm9vdCBDQTCCASIwDQYJKoZIhvcNAQEBBQADggEP
ADCCAQoCggEBALVKfySb1U+UFLYI8QVFs6rHxTLGwWMkOcTOvKy9hUYbL2fGlHZh
cp3XrXL563C7F6B2uJF4mTcnsD4mFjnp0nPxHq0Cxu9Q7v4mnnlwOMl7kN+gyCvo
fPiznA2JScQ1u+459rn9e0T5N6+R+5xaNH38bXoL42Cf17B8v6iDpoBYxVLF7QOj
BSCxBxCLpDrnX8wtjKwB9hGcsszCcjyIDV21W1S06IsJKoUdCJHfHTRvDFZGKH/Z
b1urmUcetAvL+fQjF5oesYm8FXDg533gN6Tdkl7ElFmGtjhqAPxn25Dzwp3REGMF
79TZy8LzVVZe9b1poAiS8u7GwX7pF9L17tsCAwEAAaNjMGEwDgYDVR0PAQH/BAQD
AgEGMA8GA1UdEwEB/wQFMAMBAf8wHQYDVR0OBBYEFGFQfWAjQRfp/9lv81EYSd3v
w+Z6MB8GA1UdIwQYMBaAFGFQfWAjQRfp/9lv81EYSd3vw+Z6MA0GCSqGSIb3DQEB
CwUAA4IBAQCjQzhLDMQrtYzzMOUKAiRe2NAUvAb/0Nx3H9jhMl5D7FsOYvY3FuNg
HRoVlcoad9eXGdyPm7k9uOI+8GY7IcMh3SS7r6ymiwzZ4/LMXl3HzEfISnIFcxv7
NvxbxEdgORzempZInaX9WP0wS4fn9ZPRiPw/im0ZtD2caRTShz3cutrYn4yAQZFt
45sOrRVUdXEBbpnRggUrMDv49pmAAyBOLSLYVTXgLU2WxtpoohUGeUaHeg40e3z5
2a0vtGYGVYL6a3Xta3GlW1E/QZhFXSECjW/ieMXBehLW9TbH7jYAkUltQPV2SxfT
SX8RatoREhCe8Vdro+U9GqjhwbE9vlXP
-----END CERTIFICATE-----
