Certificate:
    Data:
        Version: 3 (0x2)
        Serial Number: 1 (0x1)
        Signature Algorithm: sha256WithRSAEncryption
        Issuer: C=DE, ST=Hamburg, O=haw-hamburg, CN=SVS Root CA
        Validity
            Not Before: Jun 23 15:42:43 2022 GMT
            Not After : Dec 31 23:59:59 2030 GMT
        Subject: C=DE, ST=Hamburg, O=haw-hamburg, CN=SVS Root CA
        Subject Public Key Info:
            Public Key Algorithm: rsaEncryption
                RSA Public-Key: (2048 bit)
                Modulus:
                    00:c0:6a:49:a6:e5:91:16:7e:94:fc:ab:2a:80:19:
                    01:19:f0:03:d0:7f:30:c9:27:dc:42:c1:e0:95:3e:
                    35:30:48:3f:0a:5f:b0:58:14:87:c4:ea:18:a6:bb:
                    2b:b5:72:2d:4b:ed:3c:81:32:84:61:73:88:c7:4c:
                    a7:cb:04:43:96:18:c2:c2:5d:4d:50:ff:81:be:58:
                    50:40:12:a1:61:00:b6:a1:1e:ff:f8:03:4a:fc:f9:
                    3c:f9:80:3e:13:1c:08:2d:d8:80:5d:80:6f:09:c3:
                    0e:e5:75:e1:d7:31:de:5d:0a:b6:9a:90:02:57:66:
                    c4:3c:d2:a1:63:b8:39:1c:f2:d9:a1:e9:f4:b9:99:
                    86:c6:d9:d7:0f:01:77:af:8e:34:fa:f3:cc:99:07:
                    75:e4:b9:5e:27:f9:68:f3:d4:f5:d8:ce:fe:69:30:
                    5e:4f:01:33:9a:69:d4:65:e5:6b:09:d6:c7:20:8f:
                    c9:8a:29:e5:3e:13:30:bb:a4:fd:49:89:05:3b:6b:
                    73:6f:28:46:15:8a:67:0d:90:7a:60:70:3b:14:80:
                    f9:b2:59:f6:d2:86:6f:7f:00:45:00:7c:32:fc:55:
                    68:dd:48:2c:97:8f:11:09:e5:89:3a:6a:55:2d:96:
                    c1:99:9c:f7:aa:fb:ab:b1:67:a2:bf:90:c9:89:50:
                    6d:c5
                Exponent: 65537 (0x10001)
        X509v3 extensions:
            X509v3 Key Usage: critical
                Certificate Sign, CRL Sign
            X509v3 Basic Constraints: critical
                CA:TRUE
            X509v3 Subject Key Identifier: 
                3D:58:90:0E:63:48:DE:DD:71:1D:B3:04:62:69:8F:52:BF:20:E4:7F
            X509v3 Authority Key Identifier: 
                keyid:3D:58:90:0E:63:48:DE:DD:71:1D:B3:04:62:69:8F:52:BF:20:E4:7F

    Signature Algorithm: sha256WithRSAEncryption
         47:b4:a3:99:2f:08:de:77:e7:53:37:34:6a:2d:6f:54:d2:f8:
         fe:5b:7a:3f:1b:17:3b:67:19:49:e5:14:ac:a0:12:f9:b8:78:
         51:25:49:3f:68:6f:cd:bb:fd:26:4c:28:4e:5c:8c:c9:a7:d4:
         13:3c:e6:05:b7:f6:ac:cb:64:d9:07:da:37:2a:71:ab:14:42:
         2a:d8:09:54:32:e0:45:b6:f7:cc:5b:35:90:d5:d7:a4:51:cb:
         99:f5:35:a3:91:ec:43:95:8d:92:38:6e:6a:9e:83:53:a5:5d:
         fd:ea:a8:a4:69:22:3f:08:0f:1f:1f:9b:df:0c:98:54:d7:02:
         81:97:4b:f7:68:93:5b:d9:3d:fe:71:94:21:c6:cf:38:b8:24:
         c2:f3:53:c4:ae:32:32:e4:03:8e:47:47:91:b0:8c:56:75:33:
         15:7b:76:e3:9e:60:93:34:08:f2:b6:8a:3d:54:63:a3:dd:93:
         c1:e9:d9:2a:4d:66:73:1f:ae:51:dc:28:2b:92:48:33:af:1f:
         f5:a4:42:ca:db:af:0c:69:23:7f:e5:68:8b:1c:8f:18:1e:7e:
         1f:15:ac:06:45:af:99:b9:03:46:12:24:ca:6b:15:f0:5e:0b:
         19:63:12:72:d1:9c:a2:eb:14:a7:9c:ed:b8:17:42:be:f1:c4:
         5d:16:e2:a4
-----BEGIN CERTIFICATE-----
MIIDdDCCAlygAwIBAgIBATANBgkqhkiG9w0BAQsFADBLMQswCQYDVQQGEwJERTEQ
MA4GA1UECBMHSGFtYnVyZzEUMBIGA1UEChMLaGF3LWhhbWJ1cmcxFDASBgNVBAMT
C1NWUyBSb290IENBMB4XDTIyMDYyMzE1NDI0M1oXDTMwMTIzMTIzNTk1OVowSzEL
MAkGA1UEBhMCREUxEDAOBgNVBAgTB0hhbWJ1cmcxFDASBgNVBAoTC2hhdy1oYW1i
dXJnMRQwEgYDVQQDEwtTVlMgUm9vdCBDQTCCASIwDQYJKoZIhvcNAQEBBQADggEP
ADCCAQoCggEBAMBqSablkRZ+lPyrKoAZARnwA9B/MMkn3ELB4JU+NTBIPwpfsFgU
h8TqGKa7K7VyLUvtPIEyhGFziMdMp8sEQ5YYwsJdTVD/gb5YUEASoWEAtqEe//gD
Svz5PPmAPhMcCC3YgF2AbwnDDuV14dcx3l0KtpqQAldmxDzSoWO4ORzy2aHp9LmZ
hsbZ1w8Bd6+ONPrzzJkHdeS5Xif5aPPU9djO/mkwXk8BM5pp1GXlawnWxyCPyYop
5T4TMLuk/UmJBTtrc28oRhWKZw2QemBwOxSA+bJZ9tKGb38ARQB8MvxVaN1ILJeP
EQnliTpqVS2WwZmc96r7q7Fnor+QyYlQbcUCAwEAAaNjMGEwDgYDVR0PAQH/BAQD
AgEGMA8GA1UdEwEB/wQFMAMBAf8wHQYDVR0OBBYEFD1YkA5jSN7dcR2zBGJpj1K/
IOR/MB8GA1UdIwQYMBaAFD1YkA5jSN7dcR2zBGJpj1K/IOR/MA0GCSqGSIb3DQEB
CwUAA4IBAQBHtKOZLwjed+dTNzRqLW9U0vj+W3o/Gxc7ZxlJ5RSsoBL5uHhRJUk/
aG/Nu/0mTChOXIzJp9QTPOYFt/asy2TZB9o3KnGrFEIq2AlUMuBFtvfMWzWQ1dek
UcuZ9TWjkexDlY2SOG5qnoNTpV396qikaSI/CA8fH5vfDJhU1wKBl0v3aJNb2T3+
cZQhxs84uCTC81PErjIy5AOOR0eRsIxWdTMVe3bjnmCTNAjytoo9VGOj3ZPB6dkq
TWZzH65R3Cgrkkgzrx/1pELK268MaSN/5WiLHI8YHn4fFawGRa+ZuQNGEiTKaxXw
XgsZYxJy0Zyi6xSnnO24F0K+8cRdFuKk
-----END CERTIFICATE-----
