Certificate:
    Data:
        Version: 3 (0x2)
        Serial Number: 1 (0x1)
        Signature Algorithm: sha256WithRSAEncryption
        Issuer: C=DE, ST=Hamburg, O=haw-hamburg, CN=SVS Root CA
        Validity
            Not Before: Jun 29 21:41:02 2022 GMT
            Not After : Dec 31 23:59:59 2030 GMT
        Subject: C=DE, ST=Hamburg, O=haw-hamburg, CN=SVS Root CA
        Subject Public Key Info:
            Public Key Algorithm: rsaEncryption
                RSA Public-Key: (4096 bit)
                Modulus:
                    00:9c:4c:c0:b0:bb:b0:c0:83:a0:83:de:d1:c3:31:
                    55:c3:90:ee:cf:0c:ee:2f:56:cd:28:30:9f:da:44:
                    c6:30:44:1b:a3:ad:ac:13:17:8b:48:a6:b2:a3:8f:
                    0e:45:4a:1e:ad:e0:e3:d3:e2:64:65:d1:45:04:92:
                    0a:78:e5:40:b3:07:a8:e3:8a:40:9a:2a:0a:82:1f:
                    f2:06:11:cb:1c:6e:6e:81:db:7b:bb:2f:c4:32:7e:
                    a0:7f:2b:2c:4e:3d:ec:c4:8e:35:4f:43:64:60:2f:
                    aa:99:b9:95:19:15:b0:55:0e:3f:01:65:ab:b0:4c:
                    80:8b:99:75:d1:d7:50:1d:c9:8b:1f:70:31:15:73:
                    b1:1e:cd:0f:16:d8:2e:a8:f8:73:e5:cb:85:a9:36:
                    21:8d:ff:9a:27:12:51:18:3e:eb:80:eb:c9:41:b5:
                    c1:fe:94:53:c3:0c:bc:e4:1c:d8:85:0e:a2:77:83:
                    c1:17:b9:e1:50:02:eb:e9:9d:91:91:0a:08:fc:83:
                    97:b7:c9:64:4b:8e:0d:06:d6:76:6f:86:84:a0:92:
                    94:d5:9e:92:47:a3:cb:60:ee:55:88:7b:9a:6d:a0:
                    0e:24:df:13:e2:27:a7:b1:05:82:5e:6e:a7:25:79:
                    c3:e0:d5:cd:46:e9:0a:30:9e:6d:a3:2f:74:0c:ce:
                    a5:da:fa:14:ee:15:f8:d9:8b:b4:48:15:f5:c2:15:
                    bd:50:b8:b4:05:d0:73:71:8c:b2:cf:f8:02:88:20:
                    09:cd:30:05:05:4b:38:20:f2:71:3b:7c:ad:92:0a:
                    88:24:e3:b7:95:70:4c:6f:d9:1c:58:c4:da:6a:07:
                    79:97:8d:b4:a0:5e:54:4e:0f:e9:39:95:20:1d:ca:
                    a1:17:08:e5:67:16:d4:17:3c:a9:09:7c:15:99:0a:
                    f1:13:a3:62:34:f8:2f:8a:a0:1a:08:67:b0:a5:4a:
                    f3:48:8c:c3:95:ee:a2:a1:29:13:62:d1:8a:fd:b0:
                    c1:f8:77:f3:e9:33:c7:95:5c:f4:70:e2:2c:52:cb:
                    86:86:ca:35:e4:95:5d:f9:ad:39:09:63:b4:1c:44:
                    b5:60:6d:b4:44:61:af:87:15:4a:f7:05:37:d7:6c:
                    b4:ee:7d:67:b7:76:7a:d7:74:52:6d:06:5d:08:38:
                    c0:7a:64:4b:73:fe:72:8c:e0:17:ee:94:ec:d4:f0:
                    70:69:f4:14:84:f7:f1:69:80:2b:42:20:79:38:54:
                    91:b8:c8:1c:75:74:a2:bf:7e:a9:f6:5a:a0:51:69:
                    0f:41:92:44:d7:e9:58:24:14:82:ba:70:59:55:df:
                    a0:e8:ad:d1:37:13:3a:e7:87:9a:a8:74:0a:b5:ba:
                    0a:dc:45
                Exponent: 65537 (0x10001)
        X509v3 extensions:
            X509v3 Key Usage: critical
                Certificate Sign, CRL Sign
            X509v3 Basic Constraints: critical
                CA:TRUE
            X509v3 Subject Key Identifier: 
                E0:3D:76:AA:FC:67:DA:CC:15:74:2E:B2:B4:27:4E:3B:22:3E:C2:E7
            X509v3 Authority Key Identifier: 
                keyid:E0:3D:76:AA:FC:67:DA:CC:15:74:2E:B2:B4:27:4E:3B:22:3E:C2:E7

    Signature Algorithm: sha256WithRSAEncryption
         52:0d:b6:7b:38:3f:09:21:b9:30:20:93:81:65:5f:cf:7a:d8:
         93:f1:21:ae:9e:fb:40:57:c5:c3:be:2a:b9:0a:54:43:e9:ad:
         e0:7c:8f:66:b0:ee:a5:78:a0:4c:87:40:57:42:af:d3:bd:be:
         9e:45:b4:d3:98:89:81:4f:3d:da:08:74:bc:a4:01:2f:be:5c:
         aa:27:33:74:93:d3:88:84:e2:9d:30:90:b1:5c:0a:f6:00:9f:
         81:bd:cd:51:e3:29:66:a3:69:f4:81:63:e2:59:9f:ca:15:83:
         9a:d1:00:97:5a:e8:59:ab:90:92:88:9d:75:78:19:69:13:df:
         ca:44:09:b4:33:51:4e:7f:48:eb:79:bd:3c:1b:3a:9a:95:20:
         86:d2:02:82:77:45:99:55:98:86:17:84:c8:ed:9b:bc:58:7e:
         20:0f:3a:1e:c9:5b:3f:6c:b2:e9:d6:e3:d1:0d:53:2c:7c:49:
         3b:4b:97:b8:c6:b2:aa:08:5e:cf:b0:71:9c:01:4b:b2:72:66:
         bd:b3:8d:93:c9:a1:93:3b:8d:47:37:b7:83:fd:79:6f:21:d6:
         3c:36:14:05:17:2c:65:c2:e0:3e:0c:da:58:41:92:38:6f:53:
         2c:34:64:f4:44:66:25:b1:ff:34:39:58:56:b1:80:58:0c:63:
         95:ba:81:02:d0:2f:80:27:ca:d7:cb:30:b6:06:8a:88:dd:12:
         21:d3:5f:fc:b5:a9:ec:69:88:c5:e5:1c:12:a0:15:21:0a:a2:
         51:13:9f:81:79:a9:78:36:41:8d:66:9f:90:54:ba:b9:4d:b6:
         1b:3c:b0:61:c6:f7:f8:49:82:e6:fd:53:f2:ab:7d:b6:8d:2f:
         61:27:ee:e6:88:ff:2b:55:ac:24:83:46:39:36:37:c8:8e:59:
         39:bb:3c:d3:cc:82:a6:a8:5d:cc:bd:a3:95:05:a9:cd:a1:99:
         4c:59:6e:e8:a7:ec:c1:f4:b8:48:53:d8:11:3d:b3:aa:1f:55:
         7f:b7:ff:a7:a4:d0:60:f6:79:5d:5f:b2:84:88:9f:dc:e0:a1:
         96:a4:14:ee:6e:33:81:0e:2e:68:d1:4a:bf:fe:5d:ca:bc:b5:
         f9:67:81:b6:1e:af:c5:13:7e:e0:1a:b1:2d:b2:de:7f:4c:55:
         28:f3:57:cd:89:6d:eb:37:2f:ec:f0:4b:a7:a1:5c:0e:3b:28:
         60:3b:86:d9:14:31:03:55:4b:d8:f7:77:8f:6a:53:eb:ae:6a:
         85:f8:93:14:71:21:2a:9d:02:07:4f:d2:b3:b4:74:0d:bb:aa:
         9c:84:e5:e5:9c:bc:6e:b1:00:be:c3:c0:1e:c0:16:bf:69:9f:
         e7:b1:68:f5:09:d0:e8:c5
-----BEGIN CERTIFICATE-----
MIIFdDCCA1ygAwIBAgIBATANBgkqhkiG9w0BAQsFADBLMQswCQYDVQQGEwJERTEQ
MA4GA1UECAwHSGFtYnVyZzEUMBIGA1UECgwLaGF3LWhhbWJ1cmcxFDASBgNVBAMM
C1NWUyBSb290IENBMB4XDTIyMDYyOTIxNDEwMloXDTMwMTIzMTIzNTk1OVowSzEL
MAkGA1UEBhMCREUxEDAOBgNVBAgMB0hhbWJ1cmcxFDASBgNVBAoMC2hhdy1oYW1i
dXJnMRQwEgYDVQQDDAtTVlMgUm9vdCBDQTCCAiIwDQYJKoZIhvcNAQEBBQADggIP
ADCCAgoCggIBAJxMwLC7sMCDoIPe0cMxVcOQ7s8M7i9WzSgwn9pExjBEG6OtrBMX
i0imsqOPDkVKHq3g49PiZGXRRQSSCnjlQLMHqOOKQJoqCoIf8gYRyxxuboHbe7sv
xDJ+oH8rLE497MSONU9DZGAvqpm5lRkVsFUOPwFlq7BMgIuZddHXUB3Jix9wMRVz
sR7NDxbYLqj4c+XLhak2IY3/micSURg+64DryUG1wf6UU8MMvOQc2IUOoneDwRe5
4VAC6+mdkZEKCPyDl7fJZEuODQbWdm+GhKCSlNWekkejy2DuVYh7mm2gDiTfE+In
p7EFgl5upyV5w+DVzUbpCjCebaMvdAzOpdr6FO4V+NmLtEgV9cIVvVC4tAXQc3GM
ss/4AoggCc0wBQVLOCDycTt8rZIKiCTjt5VwTG/ZHFjE2moHeZeNtKBeVE4P6TmV
IB3KoRcI5WcW1Bc8qQl8FZkK8ROjYjT4L4qgGghnsKVK80iMw5XuoqEpE2LRiv2w
wfh38+kzx5Vc9HDiLFLLhobKNeSVXfmtOQljtBxEtWBttERhr4cVSvcFN9dstO59
Z7d2etd0Um0GXQg4wHpkS3P+cozgF+6U7NTwcGn0FIT38WmAK0IgeThUkbjIHHV0
or9+qfZaoFFpD0GSRNfpWCQUgrpwWVXfoOit0TcTOueHmqh0CrW6CtxFAgMBAAGj
YzBhMA4GA1UdDwEB/wQEAwIBBjAPBgNVHRMBAf8EBTADAQH/MB0GA1UdDgQWBBTg
PXaq/GfazBV0LrK0J047Ij7C5zAfBgNVHSMEGDAWgBTgPXaq/GfazBV0LrK0J047
Ij7C5zANBgkqhkiG9w0BAQsFAAOCAgEAUg22ezg/CSG5MCCTgWVfz3rYk/Ehrp77
QFfFw74quQpUQ+mt4HyPZrDupXigTIdAV0Kv072+nkW005iJgU892gh0vKQBL75c
qiczdJPTiITinTCQsVwK9gCfgb3NUeMpZqNp9IFj4lmfyhWDmtEAl1roWauQkoid
dXgZaRPfykQJtDNRTn9I63m9PBs6mpUghtICgndFmVWYhheEyO2bvFh+IA86Hslb
P2yy6dbj0Q1TLHxJO0uXuMayqghez7BxnAFLsnJmvbONk8mhkzuNRze3g/15byHW
PDYUBRcsZcLgPgzaWEGSOG9TLDRk9ERmJbH/NDlYVrGAWAxjlbqBAtAvgCfK18sw
tgaKiN0SIdNf/LWp7GmIxeUcEqAVIQqiUROfgXmpeDZBjWafkFS6uU22GzywYcb3
+EmC5v1T8qt9to0vYSfu5oj/K1WsJINGOTY3yI5ZObs808yCpqhdzL2jlQWpzaGZ
TFlu6KfswfS4SFPYET2zqh9Vf7f/p6TQYPZ5XV+yhIif3OChlqQU7m4zgQ4uaNFK
v/5dyry1+WeBth6vxRN+4BqxLbLef0xVKPNXzYlt6zcv7PBLp6FcDjsoYDuG2RQx
A1VL2Pd3j2pT665qhfiTFHEhKp0CB0/Ss7R0DbuqnITl5Zy8brEAvsPAHsAWv2mf
57Fo9QnQ6MU=
-----END CERTIFICATE-----
