Certificate:
    Data:
        Version: 3 (0x2)
        Serial Number: 3 (0x3)
        Signature Algorithm: sha256WithRSAEncryption
        Issuer: C=DE, ST=Hamburg, O=haw-hamburg, CN=SVS Root CA
        Validity
            Not Before: Jun 29 21:41:33 2022 GMT
            Not After : Jun 29 21:41:33 2023 GMT
        Subject: C=DE, ST=Hamburg, O=haw-hamburg, OU=SVS, CN=Sub-CA-24-User
        Subject Public Key Info:
            Public Key Algorithm: rsaEncryption
                RSA Public-Key: (4096 bit)
                Modulus:
                    00:f7:37:db:f4:5d:a3:43:5b:1e:97:e8:97:9e:f6:
                    0b:8b:d6:80:80:32:88:02:9c:77:95:51:06:49:c8:
                    a3:fc:e1:83:e3:ad:f2:af:f2:d4:a2:d8:fa:33:da:
                    a9:39:47:77:8d:7b:4d:4c:3b:2f:90:f1:3f:29:9e:
                    93:02:05:fa:a7:99:20:c1:c8:1d:d0:58:55:0c:9f:
                    96:91:42:a0:c5:85:99:bd:c4:29:e8:c0:75:92:e5:
                    62:96:9f:3c:14:ec:e5:70:c8:30:5b:d0:a8:a9:57:
                    2b:50:ca:15:11:6a:c4:fc:8c:95:55:87:fd:a0:a0:
                    1b:56:09:97:23:91:e9:4a:6a:e5:76:b2:eb:bf:a9:
                    a2:a1:d2:d4:7a:bd:8a:02:0e:5e:0a:ef:ae:3c:03:
                    f8:22:90:8f:55:e2:73:8c:d5:4c:57:f9:dd:ad:4e:
                    7a:9e:d2:dd:6a:0e:ee:dc:82:b9:c6:f9:e9:cd:ba:
                    57:5a:68:3f:50:72:96:ab:d6:c6:ff:4f:ae:6b:32:
                    0c:82:86:25:aa:01:56:91:c7:43:df:d5:d6:99:db:
                    67:63:b5:f4:59:67:77:97:6c:8c:9b:a4:b1:fb:28:
                    3d:1d:d8:63:e8:f7:fc:ac:73:3d:bd:19:22:0f:6c:
                    4f:72:e1:8a:fa:0b:79:17:1a:81:57:6e:e7:b4:79:
                    a9:c2:a1:cb:e0:96:76:c6:a0:86:e1:19:c6:f1:a6:
                    c2:2c:0b:e3:e8:94:a3:62:85:82:ec:3e:67:0c:a2:
                    9b:1b:56:07:6e:c5:58:27:56:d3:60:58:4f:2b:69:
                    ae:7f:26:54:56:b7:09:78:67:82:e8:fa:c6:ca:4b:
                    c7:34:5b:64:c9:7b:63:f1:03:7a:f6:ef:7d:80:15:
                    c3:52:f0:d0:5b:6b:8f:fa:77:b7:4e:d6:61:e7:e3:
                    41:cf:55:4d:c0:67:23:5e:37:70:d3:4d:af:26:d9:
                    f7:ff:1c:12:33:f1:17:0f:96:be:f9:45:a2:8f:2f:
                    b6:b4:24:35:2f:1c:e1:88:85:d0:0d:0d:9a:e1:eb:
                    4c:50:7a:cb:57:30:01:d5:b7:db:00:a2:59:82:5e:
                    35:77:f4:0f:40:2f:56:2e:53:df:9f:b8:e1:fa:30:
                    78:17:8f:04:15:36:ef:98:21:bc:76:0f:eb:33:5a:
                    d4:61:a6:00:52:ab:14:43:e6:02:ba:f5:37:11:90:
                    5e:c4:d1:04:9a:b9:ca:ca:36:9f:1b:92:56:7d:de:
                    b4:62:68:ae:a2:0a:dd:71:57:ec:85:86:d6:7c:b8:
                    e4:b6:b6:8f:7f:4a:c7:7d:02:36:5c:94:39:cf:84:
                    52:dd:1b:95:d3:b3:44:65:6b:fd:00:bb:08:78:bf:
                    7d:e3:91
                Exponent: 65537 (0x10001)
        X509v3 extensions:
            X509v3 Key Usage: critical
                Certificate Sign, CRL Sign
            X509v3 Basic Constraints: critical
                CA:TRUE, pathlen:0
            X509v3 Subject Key Identifier: 
                5E:6B:2E:A3:13:75:4D:03:3A:60:A0:92:BB:03:E5:D4:6C:04:3F:BF
            X509v3 Authority Key Identifier: 
                keyid:E0:3D:76:AA:FC:67:DA:CC:15:74:2E:B2:B4:27:4E:3B:22:3E:C2:E7

            X509v3 CRL Distribution Points: 

                Full Name:
                  URI:http://svs24.ful.informatik.haw-hamburg.de/root-ca.crl

    Signature Algorithm: sha256WithRSAEncryption
         0a:0c:65:e3:61:2b:79:03:65:c9:4a:bf:c2:d6:7d:93:d7:c0:
         03:e4:8e:bc:a5:17:90:54:0c:e3:f3:eb:08:1b:a8:6d:83:6b:
         fa:aa:a6:46:91:a4:e7:67:4e:4d:32:d7:0b:f5:9c:1f:4e:28:
         c9:bd:e6:75:c0:ff:d7:1e:c7:d6:eb:1e:7d:8d:a6:45:f9:25:
         22:df:be:5b:32:47:f1:8e:1c:b2:3c:6c:76:84:34:29:80:4d:
         f9:0f:2d:76:42:80:2d:11:d5:04:af:a7:97:18:cc:5c:b2:69:
         8f:bf:ab:6d:e5:f1:d7:9f:e8:89:16:86:f0:d0:a9:d8:02:40:
         6b:23:58:f3:6f:a8:94:2b:b9:1e:4e:97:db:4b:df:bd:ec:a2:
         a5:65:50:9a:53:cf:b3:3d:ff:ef:34:c7:e2:b2:14:15:62:8a:
         1f:3d:0a:a1:f1:97:fa:e2:64:51:17:a3:c3:35:01:84:ba:28:
         f3:62:56:a1:61:4e:6a:9d:47:be:1f:e9:20:69:98:d5:6d:0b:
         be:e9:75:cc:a4:e8:4d:be:4a:29:60:fd:a5:cb:74:bf:d2:76:
         aa:06:2a:bd:04:61:8d:5b:e8:4b:d3:89:90:2f:31:c4:c9:c1:
         05:6d:86:2a:ab:aa:69:73:65:c3:f7:4c:5f:18:37:4c:ea:53:
         87:49:30:a2:a9:f7:53:8b:34:4f:a8:62:fa:32:78:06:d0:c9:
         76:88:f9:ec:81:11:f9:dc:1a:bb:c5:e6:e3:35:bd:b5:ab:40:
         8f:b0:8b:49:0f:9b:d0:59:42:e6:04:41:94:2f:02:39:03:37:
         15:8d:eb:e4:6d:38:85:49:e9:8a:3a:cb:7b:75:f7:fc:58:b2:
         19:a3:8b:1e:4d:d6:f3:e6:a4:02:46:7a:bc:fa:2f:1c:22:a9:
         cb:63:41:a6:02:35:0f:64:8c:ce:93:fa:c5:b5:d0:7a:4d:c8:
         12:79:6d:f2:ee:b3:dd:39:55:78:fa:57:72:72:db:da:a8:99:
         23:9b:33:53:a2:ef:bd:c8:66:0a:73:16:f6:ff:c4:fc:e5:a8:
         4d:bc:4c:1d:13:96:3a:1c:ef:78:b5:93:8c:78:a2:1c:71:44:
         33:cf:6c:39:81:2d:c8:ce:36:05:87:a4:bc:9e:c6:12:d8:91:
         c3:a4:47:86:cc:f0:c1:e9:7f:db:51:7f:c7:db:4d:12:19:df:
         7c:3d:f7:d9:d3:31:8d:d1:36:2e:bb:a4:b2:20:92:67:49:36:
         36:98:bb:2a:02:6c:84:74:3b:57:89:54:13:62:5c:49:61:55:
         09:0f:5e:2e:77:54:ed:10:93:08:67:71:9c:1b:ed:30:84:7e:
         8c:78:7d:e1:ee:82:76:e1
-----BEGIN CERTIFICATE-----
MIIF0zCCA7ugAwIBAgIBAzANBgkqhkiG9w0BAQsFADBLMQswCQYDVQQGEwJERTEQ
MA4GA1UECAwHSGFtYnVyZzEUMBIGA1UECgwLaGF3LWhhbWJ1cmcxFDASBgNVBAMM
C1NWUyBSb290IENBMB4XDTIyMDYyOTIxNDEzM1oXDTIzMDYyOTIxNDEzM1owXDEL
MAkGA1UEBhMCREUxEDAOBgNVBAgMB0hhbWJ1cmcxFDASBgNVBAoMC2hhdy1oYW1i
dXJnMQwwCgYDVQQLDANTVlMxFzAVBgNVBAMMDlN1Yi1DQS0yNC1Vc2VyMIICIjAN
BgkqhkiG9w0BAQEFAAOCAg8AMIICCgKCAgEA9zfb9F2jQ1sel+iXnvYLi9aAgDKI
Apx3lVEGScij/OGD463yr/LUotj6M9qpOUd3jXtNTDsvkPE/KZ6TAgX6p5kgwcgd
0FhVDJ+WkUKgxYWZvcQp6MB1kuVilp88FOzlcMgwW9CoqVcrUMoVEWrE/IyVVYf9
oKAbVgmXI5HpSmrldrLrv6miodLUer2KAg5eCu+uPAP4IpCPVeJzjNVMV/ndrU56
ntLdag7u3IK5xvnpzbpXWmg/UHKWq9bG/0+uazIMgoYlqgFWkcdD39XWmdtnY7X0
WWd3l2yMm6Sx+yg9Hdhj6Pf8rHM9vRkiD2xPcuGK+gt5FxqBV27ntHmpwqHL4JZ2
xqCG4RnG8abCLAvj6JSjYoWC7D5nDKKbG1YHbsVYJ1bTYFhPK2mufyZUVrcJeGeC
6PrGykvHNFtkyXtj8QN69u99gBXDUvDQW2uP+ne3TtZh5+NBz1VNwGcjXjdw002v
Jtn3/xwSM/EXD5a++UWijy+2tCQ1LxzhiIXQDQ2a4etMUHrLVzAB1bfbAKJZgl41
d/QPQC9WLlPfn7jh+jB4F48EFTbvmCG8dg/rM1rUYaYAUqsUQ+YCuvU3EZBexNEE
mrnKyjafG5JWfd60YmiuogrdcVfshYbWfLjktraPf0rHfQI2XJQ5z4RS3RuV07NE
ZWv9ALsIeL9945ECAwEAAaOBsDCBrTAOBgNVHQ8BAf8EBAMCAQYwEgYDVR0TAQH/
BAgwBgEB/wIBADAdBgNVHQ4EFgQUXmsuoxN1TQM6YKCSuwPl1GwEP78wHwYDVR0j
BBgwFoAU4D12qvxn2swVdC6ytCdOOyI+wucwRwYDVR0fBEAwPjA8oDqgOIY2aHR0
cDovL3N2czI0LmZ1bC5pbmZvcm1hdGlrLmhhdy1oYW1idXJnLmRlL3Jvb3QtY2Eu
Y3JsMA0GCSqGSIb3DQEBCwUAA4ICAQAKDGXjYSt5A2XJSr/C1n2T18AD5I68pReQ
VAzj8+sIG6htg2v6qqZGkaTnZ05NMtcL9ZwfTijJveZ1wP/XHsfW6x59jaZF+SUi
375bMkfxjhyyPGx2hDQpgE35Dy12QoAtEdUEr6eXGMxcsmmPv6tt5fHXn+iJFobw
0KnYAkBrI1jzb6iUK7keTpfbS9+97KKlZVCaU8+zPf/vNMfishQVYoofPQqh8Zf6
4mRRF6PDNQGEuijzYlahYU5qnUe+H+kgaZjVbQu+6XXMpOhNvkopYP2ly3S/0naq
Biq9BGGNW+hL04mQLzHEycEFbYYqq6ppc2XD90xfGDdM6lOHSTCiqfdTizRPqGL6
MngG0Ml2iPnsgRH53Bq7xebjNb21q0CPsItJD5vQWULmBEGULwI5AzcVjevkbTiF
SemKOst7dff8WLIZo4seTdbz5qQCRnq8+i8cIqnLY0GmAjUPZIzOk/rFtdB6TcgS
eW3y7rPdOVV4+ldyctvaqJkjmzNTou+9yGYKcxb2/8T85ahNvEwdE5Y6HO94tZOM
eKIccUQzz2w5gS3IzjYFh6S8nsYS2JHDpEeGzPDB6X/bUX/H200SGd98PffZ0zGN
0TYuu6SyIJJnSTY2mLsqAmyEdDtXiVQTYlxJYVUJD14ud1TtEJMIZ3GcG+0whH6M
eH3h7oJ24Q==
-----END CERTIFICATE-----
