Certificate:
    Data:
        Version: 3 (0x2)
        Serial Number: 3 (0x3)
        Signature Algorithm: sha256WithRSAEncryption
        Issuer: C=DE, ST=Hamburg, O=haw-hamburg, CN=SVS Root CA
        Validity
            Not Before: Jul  2 16:09:11 2022 GMT
            Not After : Jul  2 16:09:11 2023 GMT
        Subject: C=DE, ST=Hamburg, O=haw-hamburg, OU=SVS, CN=Sub-CA-24-User
        Subject Public Key Info:
            Public Key Algorithm: rsaEncryption
                RSA Public-Key: (4096 bit)
                Modulus:
                    00:a6:51:aa:ab:c2:ac:6b:ac:75:aa:6a:b5:0b:86:
                    6b:b3:30:5e:b8:01:a5:8b:8b:04:a9:8d:d3:6a:f8:
                    83:e4:e2:e7:77:55:9c:a5:dd:51:87:0d:82:1a:40:
                    c8:5c:bf:37:4b:ae:4c:56:95:6d:5d:fe:43:3c:df:
                    be:bc:ca:31:7e:56:74:70:55:ef:70:07:ef:5b:41:
                    33:b5:91:4d:de:db:aa:5f:cb:66:05:76:c5:1c:89:
                    43:3a:28:0a:e3:44:ca:8f:8a:8f:cf:49:1b:73:84:
                    d3:3f:99:8f:42:23:68:9d:91:70:a6:ec:ff:f0:8b:
                    cf:8c:47:c4:d8:6d:5c:52:db:13:db:88:55:d0:07:
                    ad:19:0c:56:82:8a:fc:b8:f1:5a:44:66:72:d6:01:
                    40:fd:f7:47:b2:7f:14:2a:47:d2:03:c9:2d:cd:90:
                    1f:ff:d1:5b:14:97:dd:a4:0e:ab:02:df:a4:dc:e8:
                    67:b8:09:af:8b:cb:72:7c:c1:02:dd:02:37:9a:79:
                    82:e0:c5:9a:b4:30:98:09:52:e7:38:e8:d5:bc:82:
                    b2:75:23:4b:b6:8c:15:e5:3e:21:1b:36:c0:fb:2f:
                    57:5d:95:f7:5e:7c:60:63:ec:d8:29:96:37:b3:d2:
                    f9:83:32:09:33:bf:04:44:0e:b3:a9:7f:88:e7:2d:
                    59:4c:81:b9:25:49:ed:12:81:08:a5:42:37:da:cc:
                    d8:da:33:fa:cd:d1:43:24:61:24:c1:05:ef:79:82:
                    67:d7:e3:02:d4:98:fb:64:99:94:b1:08:f2:5d:2d:
                    00:4a:e4:52:2f:4e:3b:c6:1d:c3:16:f6:79:c1:ab:
                    0f:02:4c:29:a1:49:43:cf:dc:82:8e:89:56:bb:d3:
                    6a:ad:75:97:64:39:02:7e:85:14:19:93:56:af:1d:
                    71:2f:49:a7:c7:b0:e4:2d:1d:6c:e7:2c:d0:57:20:
                    cf:d8:61:e4:1d:1a:d4:f3:23:69:c0:c4:3a:80:a6:
                    6f:15:9d:f5:b6:dd:14:c5:cb:c2:52:45:62:62:16:
                    d9:ac:93:48:40:cc:1c:b7:63:70:4f:3f:c2:0c:bc:
                    91:4c:ac:13:25:38:0e:00:42:f9:21:4b:98:98:a3:
                    5e:52:22:1b:bf:a0:3f:08:a7:57:7b:df:dc:79:5d:
                    b7:a0:ac:27:31:6d:ba:09:ef:d5:9a:9b:1b:06:02:
                    83:26:6c:3c:ce:ca:7c:05:1d:91:33:a0:98:b1:62:
                    48:31:db:86:b7:ae:98:60:ca:2c:a2:76:26:2b:7f:
                    5b:7e:a0:47:ad:a2:4f:1c:d6:cf:f5:74:a8:a5:b6:
                    2a:09:2e:f5:3c:2a:10:23:3d:7b:e9:c9:db:00:c7:
                    58:42:5b
                Exponent: 65537 (0x10001)
        X509v3 extensions:
            X509v3 Key Usage: critical
                Certificate Sign, CRL Sign
            X509v3 Basic Constraints: critical
                CA:TRUE, pathlen:0
            X509v3 Subject Key Identifier: 
                D3:B9:32:20:C3:A8:83:27:66:F6:A8:FD:B1:CC:D8:64:02:CD:47:83
            X509v3 Authority Key Identifier: 
                keyid:3F:6F:A9:3A:76:DA:D9:BB:93:51:D4:E0:A6:C6:9C:87:D3:BF:40:99

            X509v3 CRL Distribution Points: 

                Full Name:
                  URI:http://svs24.ful.informatik.haw-hamburg.de/root-ca.crl

    Signature Algorithm: sha256WithRSAEncryption
         85:b0:59:ce:f6:36:50:11:fb:7f:94:1e:4b:20:6c:a9:42:af:
         2d:4d:19:f0:ec:ee:73:46:27:ed:c4:c0:9b:00:6f:2d:c2:b4:
         43:3c:40:89:8c:2b:3a:c4:1b:2e:2d:c2:ee:a5:16:33:86:0c:
         81:15:4e:fc:62:d2:6d:3e:16:9d:7c:d4:67:9a:91:d0:83:6a:
         ba:28:43:1c:92:63:d7:af:95:32:a6:00:83:91:0c:b7:32:70:
         d6:f0:81:a4:24:df:0a:1f:0c:40:4d:63:8e:56:a7:79:2b:19:
         fe:a0:a4:9d:b4:6d:cd:ce:12:69:18:f8:24:36:46:ec:e0:c0:
         d0:59:18:b1:d1:94:15:2a:f1:09:81:5a:30:ad:a2:ec:6c:c6:
         bc:c9:bd:88:c3:9c:af:9b:81:19:75:bd:d0:1c:ae:8b:b5:e0:
         3d:8e:c5:ef:f0:48:8b:17:e1:bf:90:ab:6b:60:bc:9e:21:d2:
         84:91:2b:5a:6b:e0:6d:07:be:e9:fe:c5:ee:72:1a:c9:c7:17:
         71:4f:05:de:63:98:ab:91:2a:62:77:7f:46:7b:03:c0:73:86:
         a4:26:bd:3e:c9:7e:35:d1:30:41:f7:e5:54:57:49:5f:b9:0f:
         d7:0b:be:86:58:08:0e:cf:5a:71:7b:ff:7e:a3:f8:7e:1b:3a:
         d5:36:35:2b:dd:25:55:8d:89:b2:03:d5:9e:18:11:36:a9:3d:
         cb:f1:ed:e1:16:ad:75:97:7e:82:80:a2:51:07:a4:6a:9d:bb:
         58:49:61:56:c3:94:87:73:30:9a:e8:51:e6:85:b5:c5:3d:e5:
         79:0b:2f:ee:6f:2b:af:10:0f:86:86:b2:b6:64:bb:35:ed:6f:
         c1:1a:56:a1:62:59:f5:ae:db:a7:6e:a9:2e:73:e0:48:c1:31:
         30:36:a3:b1:47:29:15:fd:38:3d:ec:ee:31:e9:0b:f1:49:c1:
         4e:cf:93:57:ea:d5:5d:1d:1c:7f:ab:22:3e:fe:f7:a4:a3:d5:
         2f:65:48:42:81:90:53:21:f6:1b:25:88:cc:b2:05:a6:c3:39:
         16:55:e3:5a:94:d6:ea:1b:d8:2d:f6:40:da:61:7e:a3:60:af:
         1e:7a:83:7b:52:47:b4:93:a1:92:c3:04:56:35:e8:82:2f:a1:
         a7:d1:34:e1:78:0c:02:96:5a:25:c8:61:47:ae:28:9d:d2:91:
         67:29:bd:d1:c0:aa:8b:28:d3:c5:0e:3f:5e:0e:4c:51:44:3a:
         42:68:23:12:3c:28:07:c1:ac:59:45:6e:07:95:92:49:ae:f3:
         a6:ff:4a:cd:10:d2:1f:8a:04:f4:a6:4c:59:92:34:fd:c5:17:
         d0:9d:59:05:15:88:bf:8e
-----BEGIN CERTIFICATE-----
MIIF0zCCA7ugAwIBAgIBAzANBgkqhkiG9w0BAQsFADBLMQswCQYDVQQGEwJERTEQ
MA4GA1UECAwHSGFtYnVyZzEUMBIGA1UECgwLaGF3LWhhbWJ1cmcxFDASBgNVBAMM
C1NWUyBSb290IENBMB4XDTIyMDcwMjE2MDkxMVoXDTIzMDcwMjE2MDkxMVowXDEL
MAkGA1UEBhMCREUxEDAOBgNVBAgMB0hhbWJ1cmcxFDASBgNVBAoMC2hhdy1oYW1i
dXJnMQwwCgYDVQQLDANTVlMxFzAVBgNVBAMMDlN1Yi1DQS0yNC1Vc2VyMIICIjAN
BgkqhkiG9w0BAQEFAAOCAg8AMIICCgKCAgEAplGqq8Ksa6x1qmq1C4ZrszBeuAGl
i4sEqY3TaviD5OLnd1Wcpd1Rhw2CGkDIXL83S65MVpVtXf5DPN++vMoxflZ0cFXv
cAfvW0EztZFN3tuqX8tmBXbFHIlDOigK40TKj4qPz0kbc4TTP5mPQiNonZFwpuz/
8IvPjEfE2G1cUtsT24hV0AetGQxWgor8uPFaRGZy1gFA/fdHsn8UKkfSA8ktzZAf
/9FbFJfdpA6rAt+k3OhnuAmvi8tyfMEC3QI3mnmC4MWatDCYCVLnOOjVvIKydSNL
towV5T4hGzbA+y9XXZX3XnxgY+zYKZY3s9L5gzIJM78ERA6zqX+I5y1ZTIG5JUnt
EoEIpUI32szY2jP6zdFDJGEkwQXveYJn1+MC1Jj7ZJmUsQjyXS0ASuRSL047xh3D
FvZ5wasPAkwpoUlDz9yCjolWu9NqrXWXZDkCfoUUGZNWrx1xL0mnx7DkLR1s5yzQ
VyDP2GHkHRrU8yNpwMQ6gKZvFZ31tt0UxcvCUkViYhbZrJNIQMwct2NwTz/CDLyR
TKwTJTgOAEL5IUuYmKNeUiIbv6A/CKdXe9/ceV23oKwnMW26Ce/VmpsbBgKDJmw8
zsp8BR2RM6CYsWJIMduGt66YYMosonYmK39bfqBHraJPHNbP9XSopbYqCS71PCoQ
Iz176cnbAMdYQlsCAwEAAaOBsDCBrTAOBgNVHQ8BAf8EBAMCAQYwEgYDVR0TAQH/
BAgwBgEB/wIBADAdBgNVHQ4EFgQU07kyIMOogydm9qj9sczYZALNR4MwHwYDVR0j
BBgwFoAUP2+pOnba2buTUdTgpsach9O/QJkwRwYDVR0fBEAwPjA8oDqgOIY2aHR0
cDovL3N2czI0LmZ1bC5pbmZvcm1hdGlrLmhhdy1oYW1idXJnLmRlL3Jvb3QtY2Eu
Y3JsMA0GCSqGSIb3DQEBCwUAA4ICAQCFsFnO9jZQEft/lB5LIGypQq8tTRnw7O5z
RiftxMCbAG8twrRDPECJjCs6xBsuLcLupRYzhgyBFU78YtJtPhadfNRnmpHQg2q6
KEMckmPXr5UypgCDkQy3MnDW8IGkJN8KHwxATWOOVqd5Kxn+oKSdtG3NzhJpGPgk
Nkbs4MDQWRix0ZQVKvEJgVowraLsbMa8yb2Iw5yvm4EZdb3QHK6LteA9jsXv8EiL
F+G/kKtrYLyeIdKEkStaa+BtB77p/sXuchrJxxdxTwXeY5irkSpid39GewPAc4ak
Jr0+yX410TBB9+VUV0lfuQ/XC76GWAgOz1pxe/9+o/h+GzrVNjUr3SVVjYmyA9We
GBE2qT3L8e3hFq11l36CgKJRB6RqnbtYSWFWw5SHczCa6FHmhbXFPeV5Cy/ubyuv
EA+GhrK2ZLs17W/BGlahYln1rtunbqkuc+BIwTEwNqOxRykV/Tg97O4x6QvxScFO
z5NX6tVdHRx/qyI+/veko9UvZUhCgZBTIfYbJYjMsgWmwzkWVeNalNbqG9gt9kDa
YX6jYK8eeoN7Uke0k6GSwwRWNeiCL6Gn0TTheAwCllolyGFHriid0pFnKb3RwKqL
KNPFDj9eDkxRRDpCaCMSPCgHwaxZRW4HlZJJrvOm/0rNENIfigT0pkxZkjT9xRfQ
nVkFFYi/jg==
-----END CERTIFICATE-----
