Certificate:
    Data:
        Version: 3 (0x2)
        Serial Number: 2 (0x2)
        Signature Algorithm: sha256WithRSAEncryption
        Issuer: C=DE, ST=Hamburg, O=haw-hamburg, CN=SVS Root CA
        Validity
            Not Before: Jun 23 16:55:06 2022 GMT
            Not After : Jun 23 16:55:06 2023 GMT
        Subject: C=DE, ST=Hamburg, O=haw-hamburg, OU=SVS, CN=Sub-CA-24
        Subject Public Key Info:
            Public Key Algorithm: rsaEncryption
                RSA Public-Key: (4096 bit)
                Modulus:
                    00:b7:a6:fc:93:98:5c:b5:09:05:39:f8:a9:4c:9a:
                    bf:3c:98:4a:bc:ab:2d:d6:d4:d6:ca:fe:c6:3f:03:
                    70:3f:31:32:8a:6d:d3:10:6a:3b:14:78:92:00:c8:
                    89:de:c6:03:34:db:46:58:b0:b7:88:d9:a1:ca:2b:
                    52:87:e0:21:c3:4a:6d:32:c2:88:f7:e8:3a:9b:cc:
                    97:d8:be:79:ff:d7:dd:db:b3:09:74:09:b4:9f:89:
                    a9:be:1d:3d:07:e4:e0:20:df:ee:a2:b4:fb:81:14:
                    6c:a9:b3:b2:91:e7:f3:75:dd:60:76:66:17:ed:af:
                    87:39:85:90:41:a4:7d:cf:f7:07:6f:f7:96:e7:e5:
                    7e:1f:91:a5:7f:37:7e:14:13:2c:2d:2e:77:da:53:
                    82:f4:d1:0e:4c:8c:35:88:09:9d:e8:c4:5c:ae:9d:
                    1a:98:53:98:cc:ef:75:2c:9c:97:8f:e7:c3:36:e9:
                    4c:24:7a:0e:42:03:53:67:f6:0f:88:47:13:93:5c:
                    da:a4:70:2a:b2:ba:65:1f:20:14:f1:36:ae:b0:de:
                    e4:32:e7:a2:c4:f7:41:71:32:83:d8:34:7e:3a:66:
                    6b:82:93:e3:87:2f:69:dd:0d:00:5e:32:7d:b6:4f:
                    ca:50:f1:c4:2d:4f:ed:a0:a5:9e:dc:59:62:74:c9:
                    ef:11:a4:30:04:3a:1a:5c:ed:da:5e:6c:31:9b:2c:
                    22:35:77:ab:bf:fe:c3:04:fb:22:78:9c:54:35:1f:
                    63:aa:93:97:a2:19:a7:32:3e:7a:7b:47:fd:bd:d6:
                    7d:95:6b:4e:8f:7b:cb:c0:dd:54:1c:88:d2:1d:33:
                    9a:bf:bc:9e:7d:d8:d6:e9:cd:75:3a:38:2d:8e:1c:
                    51:83:57:44:c4:25:ec:86:48:f5:95:71:e2:40:49:
                    65:00:f8:b7:c4:6f:f3:62:e8:cc:1a:44:4c:8b:10:
                    ea:06:ef:c9:21:f6:df:86:59:2e:a8:d4:a2:17:17:
                    9d:75:1f:f8:0c:03:30:d9:9b:24:ab:6b:3f:b9:1a:
                    14:f1:cd:a9:5b:aa:ed:88:33:87:c2:07:a4:e0:21:
                    b4:3f:79:50:72:63:73:e0:1c:8f:f2:9a:b5:a0:68:
                    4f:a3:f8:6f:ed:e8:d3:f6:75:d9:7d:f2:90:e4:a3:
                    05:56:38:d3:fa:10:68:5c:59:c2:72:9e:f6:32:02:
                    ba:9c:08:5d:d8:ff:f1:38:7c:f2:2f:7b:a6:83:c1:
                    ea:17:a6:90:08:cb:63:dc:a5:a1:ae:32:45:5b:c0:
                    c2:5c:02:51:a2:f4:74:4b:4c:0a:15:31:90:33:c9:
                    f4:c1:6d:4f:c1:fa:69:6f:9e:cf:45:4b:5d:f2:63:
                    5c:6d:01
                Exponent: 65537 (0x10001)
        X509v3 extensions:
            X509v3 Key Usage: critical
                Certificate Sign, CRL Sign
            X509v3 Basic Constraints: critical
                CA:TRUE, pathlen:0
            X509v3 Subject Key Identifier: 
                D9:12:51:8A:17:9D:9D:BE:82:01:54:A9:8A:1E:C1:97:7E:75:47:12
            X509v3 Authority Key Identifier: 
                keyid:61:3B:F3:CB:D2:FB:F1:54:0A:B7:01:23:A7:BD:CC:01:AB:2E:1C:FD

    Signature Algorithm: sha256WithRSAEncryption
         1f:67:ee:97:2c:c4:25:d0:bf:f7:10:1c:57:92:fa:dd:cf:59:
         ee:b2:8f:57:b4:27:f8:1b:a5:59:22:3b:73:08:37:fd:dd:cd:
         5c:bb:52:7b:53:24:ca:88:e6:b0:ee:d0:35:25:30:e8:c2:5c:
         b8:0f:2b:8e:20:d7:5c:d0:8f:79:38:c2:8d:6b:97:53:96:8c:
         c2:be:f7:7e:fb:66:d6:2d:fd:59:ad:ff:da:79:8f:d1:e6:bd:
         b0:80:de:8e:4f:9e:85:56:3e:b4:5a:ee:e0:b9:e1:5a:b7:07:
         f5:be:67:74:c8:99:69:f8:83:67:6e:85:e4:2d:12:15:4e:fe:
         d0:f0:ca:d3:3b:f1:f2:ec:3f:55:cb:56:c2:a9:b6:4b:57:c3:
         35:ba:21:76:01:88:e5:88:c1:93:e4:f6:41:bf:e4:0e:f0:61:
         fe:1e:82:2a:60:50:26:ef:66:05:3f:f9:b0:fe:36:d0:d6:58:
         75:0b:d4:c1:1d:32:64:fa:7e:eb:f0:66:ed:90:89:70:67:fc:
         ec:6d:e0:af:de:9c:ab:2d:3e:c1:72:6d:e8:b4:76:cc:97:9d:
         ed:8a:a5:bb:45:12:f2:e6:09:57:07:07:77:17:9a:90:92:1a:
         24:90:20:08:03:f2:d4:b6:b7:54:85:65:72:3d:08:a6:b7:0d:
         f7:7b:2e:5a:b1:94:dc:28:51:e2:f0:a8:cf:1d:40:04:7f:a4:
         60:2f:f8:49:f3:47:3a:3a:82:62:04:14:c4:0b:20:04:f8:dd:
         ef:69:22:e3:c2:e6:2f:92:53:30:0e:4f:f9:e4:5f:e4:fd:1e:
         51:68:33:91:df:0f:62:36:99:f4:86:a6:dc:36:e0:17:96:1e:
         b6:48:78:28:2a:cc:3d:54:e8:95:a2:fc:b5:fa:ab:ae:db:90:
         d7:7b:47:ba:9c:89:86:c1:b1:4e:d7:a2:8c:67:64:62:b3:8b:
         15:fb:13:d4:29:83:a0:35:ac:83:91:42:b6:6b:3b:6d:06:66:
         73:ec:8d:05:d9:3e:af:cd:8b:4f:be:a0:42:25:b3:e0:da:8d:
         79:af:f2:ef:98:8e:07:7e:65:cb:c2:08:37:e1:f7:93:5f:03:
         9e:0b:a6:7e:3f:c3:17:34:3b:8b:dc:28:49:7a:6a:8e:48:56:
         f6:d0:91:92:de:89:70:12:b6:4d:40:64:86:a2:b0:c8:8e:eb:
         a3:fe:e8:7f:45:1e:17:be:c0:26:26:87:c1:49:b9:ac:9b:4e:
         99:52:dc:87:22:b1:3f:37:f4:27:8c:7c:33:66:66:a3:bf:57:
         11:7b:d8:1a:46:38:76:47:28:cf:17:04:d9:38:e2:04:d4:e4:
         74:0d:c5:99:9a:92:a4:21
-----BEGIN CERTIFICATE-----
MIIFgzCCA2ugAwIBAgIBAjANBgkqhkiG9w0BAQsFADBLMQswCQYDVQQGEwJERTEQ
MA4GA1UECBMHSGFtYnVyZzEUMBIGA1UEChMLaGF3LWhhbWJ1cmcxFDASBgNVBAMT
C1NWUyBSb290IENBMB4XDTIyMDYyMzE2NTUwNloXDTIzMDYyMzE2NTUwNlowVzEL
MAkGA1UEBhMCREUxEDAOBgNVBAgTB0hhbWJ1cmcxFDASBgNVBAoTC2hhdy1oYW1i
dXJnMQwwCgYDVQQLEwNTVlMxEjAQBgNVBAMTCVN1Yi1DQS0yNDCCAiIwDQYJKoZI
hvcNAQEBBQADggIPADCCAgoCggIBALem/JOYXLUJBTn4qUyavzyYSryrLdbU1sr+
xj8DcD8xMopt0xBqOxR4kgDIid7GAzTbRliwt4jZocorUofgIcNKbTLCiPfoOpvM
l9i+ef/X3duzCXQJtJ+Jqb4dPQfk4CDf7qK0+4EUbKmzspHn83XdYHZmF+2vhzmF
kEGkfc/3B2/3luflfh+RpX83fhQTLC0ud9pTgvTRDkyMNYgJnejEXK6dGphTmMzv
dSycl4/nwzbpTCR6DkIDU2f2D4hHE5Nc2qRwKrK6ZR8gFPE2rrDe5DLnosT3QXEy
g9g0fjpma4KT44cvad0NAF4yfbZPylDxxC1P7aClntxZYnTJ7xGkMAQ6Glzt2l5s
MZssIjV3q7/+wwT7InicVDUfY6qTl6IZpzI+entH/b3WfZVrTo97y8DdVByI0h0z
mr+8nn3Y1unNdTo4LY4cUYNXRMQl7IZI9ZVx4kBJZQD4t8Rv82LozBpETIsQ6gbv
ySH234ZZLqjUohcXnXUf+AwDMNmbJKtrP7kaFPHNqVuq7Ygzh8IHpOAhtD95UHJj
c+Acj/KataBoT6P4b+3o0/Z12X3ykOSjBVY40/oQaFxZwnKe9jICupwIXdj/8Th8
8i97poPB6hemkAjLY9yloa4yRVvAwlwCUaL0dEtMChUxkDPJ9MFtT8H6aW+ez0VL
XfJjXG0BAgMBAAGjZjBkMA4GA1UdDwEB/wQEAwIBBjASBgNVHRMBAf8ECDAGAQH/
AgEAMB0GA1UdDgQWBBTZElGKF52dvoIBVKmKHsGXfnVHEjAfBgNVHSMEGDAWgBRh
O/PL0vvxVAq3ASOnvcwBqy4c/TANBgkqhkiG9w0BAQsFAAOCAgEAH2fulyzEJdC/
9xAcV5L63c9Z7rKPV7Qn+BulWSI7cwg3/d3NXLtSe1MkyojmsO7QNSUw6MJcuA8r
jiDXXNCPeTjCjWuXU5aMwr73fvtm1i39Wa3/2nmP0ea9sIDejk+ehVY+tFru4Lnh
WrcH9b5ndMiZafiDZ26F5C0SFU7+0PDK0zvx8uw/VctWwqm2S1fDNbohdgGI5YjB
k+T2Qb/kDvBh/h6CKmBQJu9mBT/5sP420NZYdQvUwR0yZPp+6/Bm7ZCJcGf87G3g
r96cqy0+wXJt6LR2zJed7Yqlu0US8uYJVwcHdxeakJIaJJAgCAPy1La3VIVlcj0I
prcN93suWrGU3ChR4vCozx1ABH+kYC/4SfNHOjqCYgQUxAsgBPjd72ki48LmL5JT
MA5P+eRf5P0eUWgzkd8PYjaZ9Iam3DbgF5Yetkh4KCrMPVTolaL8tfqrrtuQ13tH
upyJhsGxTteijGdkYrOLFfsT1CmDoDWsg5FCtms7bQZmc+yNBdk+r82LT76gQiWz
4NqNea/y75iOB35ly8IIN+H3k18Dngumfj/DFzQ7i9woSXpqjkhW9tCRkt6JcBK2
TUBkhqKwyI7ro/7of0UeF77AJiaHwUm5rJtOmVLchyKxPzf0J4x8M2Zmo79XEXvY
GkY4dkcozxcE2TjiBNTkdA3FmZqSpCE=
-----END CERTIFICATE-----
