Certificate:
    Data:
        Version: 3 (0x2)
        Serial Number: 2 (0x2)
        Signature Algorithm: sha256WithRSAEncryption
        Issuer: C=DE, ST=Hamburg, O=haw-hamburg, CN=SVS Root CA
        Validity
            Not Before: Jun 23 15:39:20 2022 GMT
            Not After : Jun 23 15:39:20 2023 GMT
        Subject: C=DE, ST=Hamburg, O=haw-hamburg, OU=SVS, CN=Sub-CA-24
        Subject Public Key Info:
            Public Key Algorithm: rsaEncryption
                RSA Public-Key: (2048 bit)
                Modulus:
                    00:d2:4e:6f:4c:c7:0f:1c:f0:ab:58:cc:b7:f9:26:
                    4a:c0:a7:87:fc:33:b3:aa:bb:2f:67:d9:26:56:89:
                    72:d8:7f:7a:81:f7:3e:a2:79:06:9f:e8:b4:78:d7:
                    5d:e5:a8:21:ed:32:1e:14:24:b6:e6:52:1f:ac:0b:
                    f8:b9:ad:fd:eb:19:7f:a5:2d:c6:8c:a5:c0:2b:5a:
                    2e:15:cb:a3:5f:64:83:dc:92:16:c1:1b:d4:0f:aa:
                    61:c8:5f:3e:83:1b:46:c3:df:c6:42:94:25:07:15:
                    54:ff:10:c3:4e:5a:be:e9:ff:8d:da:42:60:1b:64:
                    ac:34:a1:6c:55:06:7d:e9:cc:ec:fd:4b:8c:72:7b:
                    bd:e6:62:20:64:dc:f0:2f:fe:2b:8b:7c:04:18:2f:
                    a6:be:1d:f1:0d:a9:18:f5:ab:05:d7:a2:dd:3d:37:
                    a6:45:2e:23:ea:22:d2:f6:7a:74:e0:6d:7a:1e:ee:
                    05:f1:d2:cb:c9:3e:92:01:45:2d:8d:87:30:5e:05:
                    bd:aa:16:8f:47:20:f2:9e:d2:e4:e2:ff:2f:42:b6:
                    e5:84:03:94:01:16:de:a2:fe:21:14:5b:4e:d7:95:
                    21:9d:38:6a:68:8d:08:ec:77:96:a0:ed:31:6d:21:
                    d3:2b:4c:c2:d9:c0:c6:b7:77:01:61:a8:21:62:75:
                    14:3d
                Exponent: 65537 (0x10001)
        X509v3 extensions:
            X509v3 Key Usage: critical
                Certificate Sign, CRL Sign
            X509v3 Basic Constraints: critical
                CA:TRUE, pathlen:0
            X509v3 Subject Key Identifier: 
                54:CB:02:6E:9B:88:C0:FC:C5:98:33:DB:F8:AE:28:58:22:67:DF:79
            X509v3 Authority Key Identifier: 
                keyid:B0:86:CE:9B:36:57:82:EE:99:93:00:4B:D3:EA:E1:D2:67:35:A0:F0

    Signature Algorithm: sha256WithRSAEncryption
         99:60:a9:ce:28:da:f3:33:28:2a:7f:6a:74:a4:8e:7a:1a:44:
         90:2b:7d:38:83:98:e8:57:f0:4c:2b:6d:27:74:ec:4b:21:fd:
         94:7f:fb:6e:a3:58:59:88:12:57:23:5b:2c:e3:cc:c6:95:e3:
         da:a5:c9:c8:61:84:a6:0a:44:04:14:5e:06:a4:2c:fc:64:0c:
         f9:a0:89:f1:96:c9:32:0b:6d:c2:8b:24:70:41:9e:41:58:53:
         4a:71:3a:71:5b:e4:b9:50:a6:2a:9e:c1:c4:9b:b7:fb:02:c3:
         8e:e8:79:00:b6:1c:d4:9f:87:f3:8a:10:97:b1:f1:00:04:6b:
         fa:84:5b:97:89:6b:97:97:e6:7a:0d:43:c3:9a:63:33:e3:f6:
         d3:b7:4d:7e:90:8d:4e:32:a6:23:37:10:53:37:17:41:34:98:
         84:18:69:1d:69:9f:e5:10:f7:f0:5c:2b:fe:5b:ee:76:47:5a:
         f9:a4:b7:9d:97:59:60:a2:b4:d0:16:68:ee:43:dd:0f:3e:71:
         9d:0f:1f:64:5b:b9:7b:63:7e:63:6e:13:a9:15:4c:94:98:35:
         a7:c5:a2:1b:0c:4c:ba:ae:38:a5:83:c2:ec:4f:5b:72:98:4e:
         72:51:20:03:12:3f:be:b7:fa:ca:47:ef:3c:01:41:89:bc:9d:
         46:c8:7d:a1
-----BEGIN CERTIFICATE-----
MIIDgzCCAmugAwIBAgIBAjANBgkqhkiG9w0BAQsFADBLMQswCQYDVQQGEwJERTEQ
MA4GA1UECBMHSGFtYnVyZzEUMBIGA1UEChMLaGF3LWhhbWJ1cmcxFDASBgNVBAMT
C1NWUyBSb290IENBMB4XDTIyMDYyMzE1MzkyMFoXDTIzMDYyMzE1MzkyMFowVzEL
MAkGA1UEBhMCREUxEDAOBgNVBAgTB0hhbWJ1cmcxFDASBgNVBAoTC2hhdy1oYW1i
dXJnMQwwCgYDVQQLEwNTVlMxEjAQBgNVBAMTCVN1Yi1DQS0yNDCCASIwDQYJKoZI
hvcNAQEBBQADggEPADCCAQoCggEBANJOb0zHDxzwq1jMt/kmSsCnh/wzs6q7L2fZ
JlaJcth/eoH3PqJ5Bp/otHjXXeWoIe0yHhQktuZSH6wL+Lmt/esZf6UtxoylwCta
LhXLo19kg9ySFsEb1A+qYchfPoMbRsPfxkKUJQcVVP8Qw05avun/jdpCYBtkrDSh
bFUGfenM7P1LjHJ7veZiIGTc8C/+K4t8BBgvpr4d8Q2pGPWrBdei3T03pkUuI+oi
0vZ6dOBteh7uBfHSy8k+kgFFLY2HMF4FvaoWj0cg8p7S5OL/L0K25YQDlAEW3qL+
IRRbTteVIZ04amiNCOx3lqDtMW0h0ytMwtnAxrd3AWGoIWJ1FD0CAwEAAaNmMGQw
DgYDVR0PAQH/BAQDAgEGMBIGA1UdEwEB/wQIMAYBAf8CAQAwHQYDVR0OBBYEFFTL
Am6biMD8xZgz2/iuKFgiZ995MB8GA1UdIwQYMBaAFLCGzps2V4LumZMAS9Pq4dJn
NaDwMA0GCSqGSIb3DQEBCwUAA4IBAQCZYKnOKNrzMygqf2p0pI56GkSQK304g5jo
V/BMK20ndOxLIf2Uf/tuo1hZiBJXI1ss48zGlePapcnIYYSmCkQEFF4GpCz8ZAz5
oInxlskyC23CiyRwQZ5BWFNKcTpxW+S5UKYqnsHEm7f7AsOO6HkAthzUn4fzihCX
sfEABGv6hFuXiWuXl+Z6DUPDmmMz4/bTt01+kI1OMqYjNxBTNxdBNJiEGGkdaZ/l
EPfwXCv+W+52R1r5pLedl1lgorTQFmjuQ90PPnGdDx9kW7l7Y35jbhOpFUyUmDWn
xaIbDEy6rjilg8LsT1tymE5yUSADEj++t/rKR+88AUGJvJ1GyH2h
-----END CERTIFICATE-----
