Certificate:
    Data:
        Version: 3 (0x2)
        Serial Number: 2 (0x2)
        Signature Algorithm: sha256WithRSAEncryption
        Issuer: C=DE, ST=Hamburg, O=haw-hamburg, CN=SVS Root CA
        Validity
            Not Before: Jun 27 20:28:52 2022 GMT
            Not After : Jun 27 20:28:52 2023 GMT
        Subject: C=DE, ST=Hamburg, O=haw-hamburg, OU=SVS, CN=Sub-CA-24
        Subject Public Key Info:
            Public Key Algorithm: rsaEncryption
                RSA Public-Key: (4096 bit)
                Modulus:
                    00:9b:df:25:6e:d1:cc:1a:8c:e3:7c:c8:b7:cb:93:
                    a5:63:9e:d1:ed:f1:31:95:1d:6f:4c:b8:2b:9b:e8:
                    b3:c0:3b:d7:93:10:8b:fa:12:8a:37:7d:df:f4:f1:
                    ee:4c:30:24:5d:53:9f:ed:3d:4d:72:3e:54:59:a3:
                    c2:49:91:20:90:d8:ce:8a:69:05:56:d8:13:b0:53:
                    7c:1c:02:ba:df:b4:91:c5:53:0e:77:3e:d8:81:97:
                    b5:4c:b8:b0:da:8a:0e:df:ee:4d:f3:99:50:fc:5c:
                    0a:18:a1:e0:e1:68:da:47:15:38:fc:43:66:04:34:
                    a3:44:b6:e2:0a:fe:ce:b9:81:32:94:b6:b1:bc:02:
                    f4:c3:08:16:25:8f:bd:fd:b1:2b:82:79:b3:f6:79:
                    4e:90:f7:57:cc:5c:d8:02:67:27:6f:de:bc:16:b9:
                    b4:ba:36:45:e8:8e:80:2f:3b:86:0d:64:47:45:25:
                    08:ec:03:e0:63:cb:62:c3:88:b5:29:cd:ee:37:d0:
                    c0:77:4b:e2:8b:74:ea:56:b8:0a:00:f5:ab:96:82:
                    5e:e6:b4:7f:1c:27:a3:da:74:7f:7a:4d:f5:a2:08:
                    75:bb:ca:1a:63:27:e9:f8:49:87:de:ad:d5:20:26:
                    16:de:5c:83:89:cd:0a:9f:b9:58:d7:0e:59:e8:52:
                    1b:78:e6:0c:51:ed:4a:dd:8b:c2:5b:0e:87:81:83:
                    14:b3:19:84:ff:9c:fd:f4:b6:c1:d6:bc:a3:4a:cd:
                    28:18:c0:fd:f4:43:fb:24:03:08:d2:87:4e:a1:be:
                    20:a5:61:c4:e1:80:7d:9c:4c:fe:70:99:d3:7f:f3:
                    a6:5b:68:7b:23:62:01:67:02:fe:9e:3b:19:7d:9b:
                    83:15:ee:18:af:70:44:77:a3:21:5f:ca:6a:f7:53:
                    f5:bf:05:4f:c1:e6:9f:54:dd:a3:b2:31:2f:97:e2:
                    79:70:b8:20:81:38:ed:39:93:3f:40:c9:a1:cd:da:
                    cc:44:03:c8:82:04:ee:25:34:55:72:f2:0a:c8:d1:
                    2c:76:2d:75:40:e6:6a:8d:5a:bc:9c:2a:8a:57:ce:
                    f3:5c:65:66:e3:4b:75:03:89:13:fe:ef:d3:e4:0f:
                    28:5c:ae:ce:58:de:d3:88:33:42:68:12:7f:f3:a7:
                    ac:47:bf:83:97:42:74:f0:09:89:b4:5f:d7:6e:e8:
                    18:4a:40:b6:38:41:71:8f:00:3c:32:3b:fa:a3:e8:
                    db:f6:50:38:0a:7c:0f:78:77:27:fd:1e:c4:73:2f:
                    5b:f2:e3:ce:99:d9:dd:87:db:05:75:6a:09:f3:25:
                    98:ab:c6:59:b5:68:79:a8:16:d1:f8:07:19:68:b5:
                    c0:dc:d5
                Exponent: 65537 (0x10001)
        X509v3 extensions:
            X509v3 Key Usage: critical
                Certificate Sign, CRL Sign
            X509v3 Basic Constraints: critical
                CA:TRUE, pathlen:0
            X509v3 Subject Key Identifier: 
                A3:61:6F:1D:0D:E8:99:60:C5:1C:C2:AC:47:BF:24:FF:70:9E:49:72
            X509v3 Authority Key Identifier: 
                keyid:B5:F9:D7:76:B0:C3:00:42:87:14:D5:CB:24:F3:15:45:52:AF:5F:B9

            X509v3 CRL Distribution Points: 

                Full Name:
                  URI:http://svs24.ful.informatik.haw-hamburg.de/root-ca.crl

    Signature Algorithm: sha256WithRSAEncryption
         08:dd:a7:67:0d:24:c6:52:99:43:90:d9:95:75:ab:75:b7:39:
         6b:9f:c0:67:62:e7:ed:ba:2b:61:7f:75:11:5c:73:4e:6f:ff:
         48:cf:ab:10:35:01:a5:2c:af:e1:10:1f:2d:12:49:2a:66:a9:
         ab:69:30:96:d1:64:6b:90:df:3a:fe:67:b3:ff:cb:5d:9e:dd:
         3f:0a:88:d0:d1:ab:ee:3f:f0:6c:4c:09:a9:c0:f4:e8:75:8a:
         5d:e8:01:f0:5a:dd:e3:94:c9:b6:9c:97:ff:a4:e4:fd:b9:8a:
         ed:d2:f9:04:a7:45:17:28:9b:d8:f3:47:28:fb:e2:97:79:79:
         59:85:c7:b2:9c:df:47:c4:50:31:a9:0e:50:b5:b2:7b:94:77:
         6d:39:9d:53:c8:07:74:e9:fb:49:6e:35:88:6f:9d:03:f7:45:
         85:dd:e1:fe:3a:45:9b:e2:40:eb:02:c2:b2:e7:62:16:18:e9:
         96:4c:80:3b:8e:d9:1c:68:8e:42:ff:0f:4d:22:33:34:2f:fe:
         53:e4:25:38:15:1a:49:b8:68:7d:b8:db:95:0a:a6:85:d2:7f:
         df:9b:00:be:28:27:96:c0:8b:80:ee:18:fc:27:f0:62:32:80:
         fc:49:63:26:cd:06:09:9c:6c:c0:cf:8e:3a:b4:45:10:8e:a1:
         53:0a:76:b5:09:9d:77:63:f8:3e:30:bf:0c:5b:e7:5a:56:34:
         b1:0a:e7:05:83:fe:40:d7:75:d8:6a:f9:34:64:1b:b1:8e:9f:
         2b:91:b3:38:8b:9a:cf:04:d9:00:26:4c:e2:8b:18:5e:8b:bf:
         3e:0e:e0:a1:1c:09:0f:2e:cd:cf:ff:cb:11:4b:1e:f3:97:c8:
         30:4e:e5:0d:9b:19:4e:c8:f5:ae:7f:d5:d1:d8:4b:a8:aa:a0:
         b0:5c:a8:ec:f1:1d:42:e5:cd:33:ec:42:71:89:1f:c0:3d:de:
         95:0b:75:bf:b1:91:1b:65:9f:9e:89:8d:a1:99:93:85:ba:bf:
         51:00:e4:a1:34:44:3c:4f:91:c5:d5:17:2b:f4:7c:7e:69:f5:
         9d:98:12:70:f8:af:0d:e0:f8:f8:a7:ca:93:79:3f:a1:f0:8a:
         03:1e:6b:da:ab:b6:77:18:6f:2e:1e:4a:54:fa:6e:d8:ef:fc:
         0a:8b:0e:87:37:c9:42:1e:81:dc:98:c2:a3:89:b3:fd:bc:ad:
         2b:76:ae:57:bc:cf:3c:dc:e9:3a:7a:e5:bb:52:de:95:10:b1:
         33:7b:95:63:88:7c:28:20:d9:58:85:ff:7f:77:b0:a1:47:73:
         b9:38:37:ba:83:6b:ea:32:d0:b6:69:a1:52:00:87:24:c3:8e:
         f5:d6:b3:65:97:86:b0:45
-----BEGIN CERTIFICATE-----
MIIFzjCCA7agAwIBAgIBAjANBgkqhkiG9w0BAQsFADBLMQswCQYDVQQGEwJERTEQ
MA4GA1UECBMHSGFtYnVyZzEUMBIGA1UEChMLaGF3LWhhbWJ1cmcxFDASBgNVBAMT
C1NWUyBSb290IENBMB4XDTIyMDYyNzIwMjg1MloXDTIzMDYyNzIwMjg1MlowVzEL
MAkGA1UEBhMCREUxEDAOBgNVBAgTB0hhbWJ1cmcxFDASBgNVBAoTC2hhdy1oYW1i
dXJnMQwwCgYDVQQLEwNTVlMxEjAQBgNVBAMTCVN1Yi1DQS0yNDCCAiIwDQYJKoZI
hvcNAQEBBQADggIPADCCAgoCggIBAJvfJW7RzBqM43zIt8uTpWOe0e3xMZUdb0y4
K5vos8A715MQi/oSijd93/Tx7kwwJF1Tn+09TXI+VFmjwkmRIJDYzoppBVbYE7BT
fBwCut+0kcVTDnc+2IGXtUy4sNqKDt/uTfOZUPxcChih4OFo2kcVOPxDZgQ0o0S2
4gr+zrmBMpS2sbwC9MMIFiWPvf2xK4J5s/Z5TpD3V8xc2AJnJ2/evBa5tLo2ReiO
gC87hg1kR0UlCOwD4GPLYsOItSnN7jfQwHdL4ot06la4CgD1q5aCXua0fxwno9p0
f3pN9aIIdbvKGmMn6fhJh96t1SAmFt5cg4nNCp+5WNcOWehSG3jmDFHtSt2LwlsO
h4GDFLMZhP+c/fS2wda8o0rNKBjA/fRD+yQDCNKHTqG+IKVhxOGAfZxM/nCZ03/z
pltoeyNiAWcC/p47GX2bgxXuGK9wRHejIV/KavdT9b8FT8Hmn1Tdo7IxL5fieXC4
IIE47TmTP0DJoc3azEQDyIIE7iU0VXLyCsjRLHYtdUDmao1avJwqilfO81xlZuNL
dQOJE/7v0+QPKFyuzlje04gzQmgSf/OnrEe/g5dCdPAJibRf127oGEpAtjhBcY8A
PDI7+qPo2/ZQOAp8D3h3J/0exHMvW/LjzpnZ3YfbBXVqCfMlmKvGWbVoeagW0fgH
GWi1wNzVAgMBAAGjgbAwga0wDgYDVR0PAQH/BAQDAgEGMBIGA1UdEwEB/wQIMAYB
Af8CAQAwHQYDVR0OBBYEFKNhbx0N6JlgxRzCrEe/JP9wnklyMB8GA1UdIwQYMBaA
FLX513awwwBChxTVyyTzFUVSr1+5MEcGA1UdHwRAMD4wPKA6oDiGNmh0dHA6Ly9z
dnMyNC5mdWwuaW5mb3JtYXRpay5oYXctaGFtYnVyZy5kZS9yb290LWNhLmNybDAN
BgkqhkiG9w0BAQsFAAOCAgEACN2nZw0kxlKZQ5DZlXWrdbc5a5/AZ2Ln7borYX91
EVxzTm//SM+rEDUBpSyv4RAfLRJJKmapq2kwltFka5DfOv5ns//LXZ7dPwqI0NGr
7j/wbEwJqcD06HWKXegB8Frd45TJtpyX/6Tk/bmK7dL5BKdFFyib2PNHKPvil3l5
WYXHspzfR8RQMakOULWye5R3bTmdU8gHdOn7SW41iG+dA/dFhd3h/jpFm+JA6wLC
sudiFhjplkyAO47ZHGiOQv8PTSIzNC/+U+QlOBUaSbhofbjblQqmhdJ/35sAvign
lsCLgO4Y/CfwYjKA/EljJs0GCZxswM+OOrRFEI6hUwp2tQmdd2P4PjC/DFvnWlY0
sQrnBYP+QNd12Gr5NGQbsY6fK5GzOIuazwTZACZM4osYXou/Pg7goRwJDy7Nz//L
EUse85fIME7lDZsZTsj1rn/V0dhLqKqgsFyo7PEdQuXNM+xCcYkfwD3elQt1v7GR
G2WfnomNoZmThbq/UQDkoTREPE+RxdUXK/R8fmn1nZgScPivDeD4+KfKk3k/ofCK
Ax5r2qu2dxhvLh5KVPpu2O/8CosOhzfJQh6B3JjCo4mz/bytK3auV7zPPNzpOnrl
u1LelRCxM3uVY4h8KCDZWIX/f3ewoUdzuTg3uoNr6jLQtmmhUgCHJMOO9dazZZeG
sEU=
-----END CERTIFICATE-----
