Certificate:
    Data:
        Version: 3 (0x2)
        Serial Number: 2 (0x2)
        Signature Algorithm: sha256WithRSAEncryption
        Issuer: C=DE, ST=Hamburg, O=haw-hamburg, CN=SVS Root CA
        Validity
            Not Before: Jun 23 14:32:36 2022 GMT
            Not After : Jun 23 14:32:36 2023 GMT
        Subject: C=DE, ST=Hamburg, O=haw-hamburg, OU=SVS, CN=Sub-CA-24
        Subject Public Key Info:
            Public Key Algorithm: rsaEncryption
                RSA Public-Key: (2048 bit)
                Modulus:
                    00:c9:58:35:c2:57:0a:a6:b1:94:e9:0b:b3:e4:8e:
                    3e:33:ae:d5:f4:da:d6:2d:ac:20:6e:d7:33:54:14:
                    e0:ca:63:fa:3b:f8:5d:7c:de:ca:df:f2:47:78:78:
                    be:a6:ed:79:53:87:ce:fc:bb:76:e9:c6:ac:1b:ca:
                    5b:80:43:6c:54:24:64:47:f6:63:00:a2:ab:23:3a:
                    d3:4e:fb:01:1f:e0:95:56:b5:b6:b7:e6:3f:6e:46:
                    bf:93:25:7a:9e:d0:f9:06:0d:ba:dc:a1:4b:c6:16:
                    c4:39:d4:f3:76:7c:1e:c6:67:32:1e:61:70:5e:28:
                    80:4d:7e:8d:be:07:e1:60:fb:bf:15:22:c5:76:44:
                    58:08:a2:e8:48:2a:af:22:bc:27:87:91:81:bf:6d:
                    5c:c3:26:5c:d3:bf:99:12:41:39:f3:76:92:e1:57:
                    af:3a:2d:47:ee:18:cb:c4:da:c8:ce:74:06:71:aa:
                    5b:ff:54:34:14:72:3e:6f:d5:50:a5:cd:da:4f:bb:
                    9e:17:26:f1:60:af:9a:e2:6e:f0:3a:65:41:27:b1:
                    2a:b2:bb:e7:4f:a6:50:ed:c4:eb:f7:c0:f1:45:d5:
                    ab:6c:f5:3e:81:4d:96:6f:93:bd:e0:3d:43:0b:29:
                    73:4c:6d:9a:3f:ee:8c:e1:07:97:19:97:44:05:f6:
                    3b:3f
                Exponent: 65537 (0x10001)
        X509v3 extensions:
            X509v3 Key Usage: critical
                Certificate Sign, CRL Sign
            X509v3 Basic Constraints: critical
                CA:TRUE, pathlen:0
            X509v3 Subject Key Identifier: 
                BC:B2:70:BC:4B:FE:ED:31:C7:46:5A:11:A0:43:E6:8C:5F:F1:3D:9B
            X509v3 Authority Key Identifier: 
                keyid:05:CD:36:43:9C:68:25:CE:4D:63:9F:23:A2:E0:0B:84:37:DB:41:64

    Signature Algorithm: sha256WithRSAEncryption
         1d:a0:9c:17:e9:e3:15:c8:62:0c:8a:e4:de:5c:4c:17:59:03:
         74:e6:a1:78:e7:ba:fd:a4:00:58:a0:e9:f7:9c:17:13:28:a7:
         95:5a:ae:e1:e5:e3:46:0a:8c:c7:3b:58:06:a2:30:8e:50:c6:
         79:ad:65:e6:4f:a6:f9:f9:7b:dd:76:d1:c2:71:2a:e0:a0:73:
         be:c2:73:db:06:89:db:cd:d0:56:78:a2:de:b0:d1:50:b7:98:
         0b:d8:f0:c0:2b:f7:eb:1f:62:d5:9b:89:cd:b7:5f:b9:14:a2:
         aa:3a:2f:5f:93:79:fb:ae:ca:7c:65:cc:58:76:4a:54:3f:6c:
         30:39:d9:8f:54:49:e4:cc:42:f6:6f:e8:fe:22:c8:40:0a:29:
         88:88:fa:a7:dc:72:59:19:34:eb:6e:8f:25:b0:f4:25:1b:40:
         e0:f2:50:32:8a:fd:65:19:74:21:98:97:6e:0b:c8:d9:54:83:
         38:f1:39:c5:bd:24:bd:69:14:ca:ee:b7:f2:0a:a1:ff:f8:f5:
         68:14:2b:8c:33:a6:fe:32:9b:b6:97:8c:07:71:93:70:7f:56:
         78:22:5e:55:d7:3b:9e:a2:f7:3a:c0:14:81:ae:2f:b7:02:2f:
         27:cb:75:4c:f8:7b:a9:b4:f2:a7:8b:71:4c:06:a7:df:c4:96:
         67:bd:31:86
-----BEGIN CERTIFICATE-----
MIIDgzCCAmugAwIBAgIBAjANBgkqhkiG9w0BAQsFADBLMQswCQYDVQQGEwJERTEQ
MA4GA1UECBMHSGFtYnVyZzEUMBIGA1UEChMLaGF3LWhhbWJ1cmcxFDASBgNVBAMT
C1NWUyBSb290IENBMB4XDTIyMDYyMzE0MzIzNloXDTIzMDYyMzE0MzIzNlowVzEL
MAkGA1UEBhMCREUxEDAOBgNVBAgTB0hhbWJ1cmcxFDASBgNVBAoTC2hhdy1oYW1i
dXJnMQwwCgYDVQQLEwNTVlMxEjAQBgNVBAMTCVN1Yi1DQS0yNDCCASIwDQYJKoZI
hvcNAQEBBQADggEPADCCAQoCggEBAMlYNcJXCqaxlOkLs+SOPjOu1fTa1i2sIG7X
M1QU4Mpj+jv4XXzeyt/yR3h4vqbteVOHzvy7dunGrBvKW4BDbFQkZEf2YwCiqyM6
0077AR/glVa1trfmP25Gv5Mlep7Q+QYNutyhS8YWxDnU83Z8HsZnMh5hcF4ogE1+
jb4H4WD7vxUixXZEWAii6EgqryK8J4eRgb9tXMMmXNO/mRJBOfN2kuFXrzotR+4Y
y8TayM50BnGqW/9UNBRyPm/VUKXN2k+7nhcm8WCvmuJu8DplQSexKrK750+mUO3E
6/fA8UXVq2z1PoFNlm+TveA9Qwspc0xtmj/ujOEHlxmXRAX2Oz8CAwEAAaNmMGQw
DgYDVR0PAQH/BAQDAgEGMBIGA1UdEwEB/wQIMAYBAf8CAQAwHQYDVR0OBBYEFLyy
cLxL/u0xx0ZaEaBD5oxf8T2bMB8GA1UdIwQYMBaAFAXNNkOcaCXOTWOfI6LgC4Q3
20FkMA0GCSqGSIb3DQEBCwUAA4IBAQAdoJwX6eMVyGIMiuTeXEwXWQN05qF457r9
pABYoOn3nBcTKKeVWq7h5eNGCozHO1gGojCOUMZ5rWXmT6b5+XvddtHCcSrgoHO+
wnPbBonbzdBWeKLesNFQt5gL2PDAK/frH2LVm4nNt1+5FKKqOi9fk3n7rsp8ZcxY
dkpUP2wwOdmPVEnkzEL2b+j+IshACimIiPqn3HJZGTTrbo8lsPQlG0Dg8lAyiv1l
GXQhmJduC8jZVIM48TnFvSS9aRTK7rfyCqH/+PVoFCuMM6b+Mpu2l4wHcZNwf1Z4
Il5V1zueovc6wBSBri+3Ai8ny3VM+HuptPKni3FMBqffxJZnvTGG
-----END CERTIFICATE-----
Certificate:
    Data:
        Version: 3 (0x2)
        Serial Number: 1 (0x1)
        Signature Algorithm: sha256WithRSAEncryption
        Issuer: C=DE, ST=Hamburg, O=haw-hamburg, CN=SVS Root CA
        Validity
            Not Before: Jun 23 14:32:30 2022 GMT
            Not After : Dec 31 23:59:59 2030 GMT
        Subject: C=DE, ST=Hamburg, O=haw-hamburg, CN=SVS Root CA
        Subject Public Key Info:
            Public Key Algorithm: rsaEncryption
                RSA Public-Key: (2048 bit)
                Modulus:
                    00:b1:0b:74:60:d7:8a:31:b7:75:4b:e6:fc:9b:62:
                    84:be:e3:f5:c7:d0:18:fc:c5:d4:f9:6d:39:0c:e4:
                    7c:95:d3:48:93:be:22:f7:58:51:6d:b7:c7:77:f9:
                    f0:e2:0e:cd:21:34:46:27:d6:ae:10:bd:8c:22:a1:
                    30:ce:48:42:84:d9:ef:50:a8:4b:d0:f8:5f:c7:c1:
                    cd:5a:04:a5:b0:bd:c8:73:37:c5:77:e5:aa:88:2c:
                    24:c5:fd:0d:cd:b7:54:03:ae:6a:0e:fa:92:52:78:
                    0d:2f:5d:59:49:b5:90:02:9b:ef:d0:1e:01:36:94:
                    12:42:35:18:1a:86:23:b1:32:ce:33:d8:46:2c:65:
                    39:44:22:36:1a:21:fc:4e:35:cd:9d:51:39:ac:50:
                    fe:b4:b0:0f:f8:5e:6a:d8:7a:55:3a:92:be:5d:24:
                    2d:60:e9:96:58:f8:15:30:f8:3a:68:c9:67:ba:16:
                    ba:0d:20:f8:2e:60:e7:b0:b2:54:1f:d2:7e:6b:d6:
                    b8:d2:25:36:87:4b:9b:5a:86:01:79:f5:56:41:25:
                    01:f5:19:86:0e:6f:8b:ac:b1:1a:3d:cc:e4:e4:59:
                    7c:29:db:18:b1:8a:1b:cc:5e:f1:12:e4:25:09:55:
                    7b:1a:cd:41:86:23:66:53:d3:49:d7:53:b8:75:c8:
                    02:91
                Exponent: 65537 (0x10001)
        X509v3 extensions:
            X509v3 Key Usage: critical
                Certificate Sign, CRL Sign
            X509v3 Basic Constraints: critical
                CA:TRUE
            X509v3 Subject Key Identifier: 
                05:CD:36:43:9C:68:25:CE:4D:63:9F:23:A2:E0:0B:84:37:DB:41:64
            X509v3 Authority Key Identifier: 
                keyid:05:CD:36:43:9C:68:25:CE:4D:63:9F:23:A2:E0:0B:84:37:DB:41:64

    Signature Algorithm: sha256WithRSAEncryption
         94:a3:3b:f0:0f:f2:20:da:f9:7b:52:a2:4d:0e:24:e0:36:ac:
         59:00:7c:f0:9c:52:d8:98:44:1f:5f:8a:7f:c5:09:38:f4:a3:
         9d:d3:5f:03:5f:e5:c6:63:5b:f2:d0:35:00:a4:c3:31:c7:f2:
         5d:72:7b:21:0a:64:b8:e5:93:66:dc:1b:ca:a6:19:b5:9e:c1:
         49:6d:ad:2d:97:13:a2:cf:e9:5d:04:38:4a:07:23:b2:4c:57:
         e6:34:70:a1:0d:34:b6:96:30:fa:a3:5e:0d:c9:39:89:a7:11:
         0f:ae:aa:35:8f:90:df:c6:45:d2:29:01:59:9a:a5:61:7b:36:
         bb:45:6a:17:28:33:b5:f1:59:ef:b6:51:8b:b1:a9:02:0c:96:
         ea:24:7e:94:9e:ed:66:27:62:f5:67:15:5a:2a:7f:e7:08:9e:
         09:fb:d6:69:77:48:0d:24:ae:a5:2a:41:f5:ef:35:87:62:7c:
         1b:f7:91:2a:b8:04:ca:fc:40:30:9e:33:a4:be:d8:cc:e2:4e:
         36:85:de:c3:c6:92:d1:ff:be:1f:2b:2e:fb:8f:dd:bf:d4:9a:
         bd:4e:fe:3c:9c:ff:7c:5b:8e:90:6e:aa:27:b1:59:91:e3:7c:
         1d:27:27:7d:19:b2:29:d4:6d:eb:fc:1a:35:52:89:c4:40:0e:
         0a:7d:64:e4
-----BEGIN CERTIFICATE-----
MIIDdDCCAlygAwIBAgIBATANBgkqhkiG9w0BAQsFADBLMQswCQYDVQQGEwJERTEQ
MA4GA1UECBMHSGFtYnVyZzEUMBIGA1UEChMLaGF3LWhhbWJ1cmcxFDASBgNVBAMT
C1NWUyBSb290IENBMB4XDTIyMDYyMzE0MzIzMFoXDTMwMTIzMTIzNTk1OVowSzEL
MAkGA1UEBhMCREUxEDAOBgNVBAgTB0hhbWJ1cmcxFDASBgNVBAoTC2hhdy1oYW1i
dXJnMRQwEgYDVQQDEwtTVlMgUm9vdCBDQTCCASIwDQYJKoZIhvcNAQEBBQADggEP
ADCCAQoCggEBALELdGDXijG3dUvm/JtihL7j9cfQGPzF1PltOQzkfJXTSJO+IvdY
UW23x3f58OIOzSE0RifWrhC9jCKhMM5IQoTZ71CoS9D4X8fBzVoEpbC9yHM3xXfl
qogsJMX9Dc23VAOuag76klJ4DS9dWUm1kAKb79AeATaUEkI1GBqGI7EyzjPYRixl
OUQiNhoh/E41zZ1ROaxQ/rSwD/heath6VTqSvl0kLWDpllj4FTD4OmjJZ7oWug0g
+C5g57CyVB/SfmvWuNIlNodLm1qGAXn1VkElAfUZhg5vi6yxGj3M5ORZfCnbGLGK
G8xe8RLkJQlVexrNQYYjZlPTSddTuHXIApECAwEAAaNjMGEwDgYDVR0PAQH/BAQD
AgEGMA8GA1UdEwEB/wQFMAMBAf8wHQYDVR0OBBYEFAXNNkOcaCXOTWOfI6LgC4Q3
20FkMB8GA1UdIwQYMBaAFAXNNkOcaCXOTWOfI6LgC4Q320FkMA0GCSqGSIb3DQEB
CwUAA4IBAQCUozvwD/Ig2vl7UqJNDiTgNqxZAHzwnFLYmEQfX4p/xQk49KOd018D
X+XGY1vy0DUApMMxx/JdcnshCmS45ZNm3BvKphm1nsFJba0tlxOiz+ldBDhKByOy
TFfmNHChDTS2ljD6o14NyTmJpxEPrqo1j5DfxkXSKQFZmqVheza7RWoXKDO18Vnv
tlGLsakCDJbqJH6Unu1mJ2L1ZxVaKn/nCJ4J+9Zpd0gNJK6lKkH17zWHYnwb95Eq
uATK/EAwnjOkvtjM4k42hd7DxpLR/74fKy77j92/1Jq9Tv48nP98W46QbqonsVmR
43wdJyd9GbIp1G3r/Bo1UonEQA4KfWTk
-----END CERTIFICATE-----
