Certificate:
    Data:
        Version: 3 (0x2)
        Serial Number: 1 (0x1)
        Signature Algorithm: sha256WithRSAEncryption
        Issuer: C=DE, ST=Hamburg, O=haw-hamburg, OU=SVS, CN=Sub-CA-24-User
        Validity
            Not Before: Jul  2 16:58:41 2022 GMT
            Not After : Jun 29 16:58:41 2023 GMT
        Subject: C=DE, ST=Hamburg, L=Hamburg, O=haw-hamburg, OU=SVS, OU=24, CN=Joao Filipe Silva de Almeida
        Subject Public Key Info:
            Public Key Algorithm: rsaEncryption
                RSA Public-Key: (4096 bit)
                Modulus:
                    00:c1:bc:ef:94:b7:e4:fa:69:a2:7e:cc:9f:72:39:
                    6c:da:da:53:e8:ee:72:f4:fc:6f:78:0f:28:8e:3f:
                    7c:f7:9c:d4:82:a3:6d:c5:b0:de:27:aa:a2:29:72:
                    b9:9b:1c:a6:f2:26:4a:bc:49:9a:47:7c:53:39:3e:
                    ba:d9:b9:4f:da:66:96:f4:40:04:67:1c:51:8e:db:
                    d7:ed:bc:f9:86:4d:a8:18:0f:fd:4d:33:a1:04:17:
                    35:dc:35:7f:c4:c5:b1:fd:86:21:7a:1a:06:dd:bd:
                    8e:84:40:a1:b6:fb:83:d1:97:ff:76:b7:54:4d:76:
                    0a:7a:67:66:28:04:7c:53:15:e0:d1:d1:6b:f6:9f:
                    3e:03:1a:a0:63:6c:56:d7:32:64:1c:83:d5:a1:a5:
                    d1:e7:ee:f2:f3:ed:78:23:9b:a2:ec:41:78:cb:69:
                    96:84:4e:1b:8e:04:aa:12:9a:26:be:49:22:d3:04:
                    53:1a:ea:2f:f3:13:7f:37:70:7a:b4:7c:eb:c8:ac:
                    22:14:89:77:e9:7a:57:73:2b:a4:8e:cd:49:d9:20:
                    eb:94:5e:8e:0c:ce:3f:ac:b8:78:b4:de:24:a5:d4:
                    b0:72:35:25:48:0c:fa:6c:19:9d:56:6f:f7:05:ea:
                    8f:06:c6:57:e9:07:82:99:60:1f:e7:09:9e:9a:ce:
                    b9:35:3b:3a:97:22:c4:9d:39:bd:e9:71:15:77:d7:
                    a3:41:b7:28:85:14:e4:69:ec:45:80:2b:c1:58:c0:
                    50:15:50:80:93:17:e3:de:0d:79:52:f6:1c:2e:b1:
                    85:74:ad:0b:72:90:fc:45:2b:54:b5:6e:2f:fe:24:
                    e6:c5:16:b3:aa:ec:6a:51:62:dc:d5:00:8b:4c:da:
                    f3:90:06:62:17:86:e5:75:ec:50:d3:8c:ab:ac:e5:
                    2a:31:b7:24:e6:d0:39:25:f1:74:56:be:81:bb:d1:
                    5c:21:cd:6f:57:39:3d:00:40:1a:71:12:45:98:dd:
                    2d:d0:04:f7:83:2f:22:c7:01:89:4e:5a:c7:81:4c:
                    71:23:e6:8a:ee:6c:57:60:ea:69:27:38:ed:c6:9c:
                    43:4f:ab:b5:20:82:74:d5:37:73:13:40:ba:81:a3:
                    d3:6d:26:0a:91:3f:e3:70:10:f0:5c:a2:dd:19:82:
                    4d:da:0e:4e:9e:97:89:2b:3d:78:df:d3:b2:ba:73:
                    e2:7f:82:b3:12:8e:3f:42:8a:1c:45:9b:54:da:52:
                    43:fe:23:64:e0:1e:0b:66:7b:f1:ff:8e:c7:d2:b1:
                    42:51:94:fb:63:a1:63:74:2d:0d:93:b1:9e:08:84:
                    a7:13:28:6a:ee:a6:a7:df:9c:77:4f:71:6d:38:27:
                    5e:5e:2b
                Exponent: 65537 (0x10001)
        X509v3 extensions:
            X509v3 Key Usage: critical
                Digital Signature
            X509v3 Basic Constraints: 
                CA:FALSE
            X509v3 Extended Key Usage: 
                TLS Web Client Authentication
            X509v3 Subject Key Identifier: 
                7B:F2:75:70:85:74:A7:C9:F6:5F:E6:96:81:49:5C:68:A1:11:57:9D
            X509v3 Authority Key Identifier: 
                keyid:33:AF:16:F0:6A:C9:F8:93:1E:9D:0D:0A:2C:ED:34:24:A6:E7:17:8B

            X509v3 Subject Alternative Name: 
                email:Joao.SilvadeAlmeida@haw-hamburg.de
    Signature Algorithm: sha256WithRSAEncryption
         04:f0:1d:d5:63:f9:8f:76:e6:96:9a:ca:82:da:f1:9f:e7:11:
         bc:68:86:35:c0:64:c5:dc:95:9c:82:17:e4:f1:c7:75:f4:e2:
         cb:cc:4c:e1:e6:eb:c5:a0:91:b5:7e:ab:07:a2:3a:c2:c2:44:
         3c:ba:38:66:c1:76:05:94:16:db:9b:1b:78:3e:38:f6:33:7a:
         59:60:5f:0c:06:9a:e5:72:af:fb:62:6b:25:da:e5:7f:47:82:
         97:c9:d8:ad:cb:0d:f3:2d:ea:d4:e6:c8:fc:e1:6d:88:ee:71:
         94:51:f6:9d:6a:f8:29:cc:6c:77:6e:79:f1:40:e9:ed:51:7c:
         c7:59:07:7d:a1:4d:3e:21:47:e6:ea:37:69:24:53:5f:3b:47:
         6f:33:d1:09:9a:db:49:b9:59:b6:cd:95:1c:44:76:91:e0:5a:
         7b:53:94:c5:1c:48:9f:21:5e:d7:8b:e6:d7:4b:35:c4:b9:80:
         50:01:d8:6c:aa:1a:37:c1:13:cd:e4:c2:8c:8c:88:cd:63:0b:
         69:ce:61:2c:b6:24:be:da:a9:c9:85:bd:a0:4f:f9:64:dc:c4:
         8d:9b:66:a3:15:03:53:1f:0d:4d:13:22:5f:14:1f:08:5d:60:
         17:67:41:89:28:f5:ba:ca:23:ae:08:6c:b2:a8:4c:ce:fd:32:
         53:e1:d0:df:32:c5:63:f1:82:3f:4c:e3:81:88:5c:be:71:48:
         ce:ab:52:e8:5a:6e:56:91:77:56:b6:ea:7c:d5:8d:b5:41:d7:
         2f:0c:24:0e:4c:29:ac:48:50:35:2b:10:fb:49:84:39:25:6a:
         8f:f4:39:3c:1f:6b:bd:d6:be:38:87:af:00:7f:7b:73:ad:31:
         f9:0f:33:8e:7d:b7:a7:46:4b:e2:9d:09:3f:2e:e3:f5:7f:16:
         d6:0e:6b:39:cb:6a:58:a9:77:47:e9:0a:e6:14:c3:89:15:c1:
         6c:bb:09:f6:29:dd:fb:48:a2:7e:a1:65:ae:74:18:9d:4d:4e:
         87:ee:a7:6d:15:4d:0f:06:1b:63:72:35:9f:d7:92:2b:94:83:
         53:9f:76:1d:5a:54:0a:73:93:6e:e6:90:86:ef:89:dd:97:51:
         fc:4e:3f:d1:93:e2:9c:16:a0:02:7f:42:e8:6a:4f:06:20:05:
         e0:3a:05:7d:e7:2b:e9:9b:b5:f4:98:3b:6c:34:7e:a8:84:35:
         27:ae:34:78:41:8a:4b:fd:a4:cd:e1:09:93:c1:0d:9c:aa:cd:
         c7:6a:6a:ec:29:a6:11:8f:15:3a:94:ae:46:90:58:b9:3e:72:
         ed:b5:1b:af:92:04:8c:62:76:08:bd:4a:61:e9:36:7c:82:43:
         27:79:9f:b1:1a:7e:37:5a
-----BEGIN CERTIFICATE-----
MIIGBDCCA+ygAwIBAgIBATANBgkqhkiG9w0BAQsFADBcMQswCQYDVQQGEwJERTEQ
MA4GA1UECAwHSGFtYnVyZzEUMBIGA1UECgwLaGF3LWhhbWJ1cmcxDDAKBgNVBAsM
A1NWUzEXMBUGA1UEAwwOU3ViLUNBLTI0LVVzZXIwHhcNMjIwNzAyMTY1ODQxWhcN
MjMwNjI5MTY1ODQxWjCBiTELMAkGA1UEBhMCREUxEDAOBgNVBAgMB0hhbWJ1cmcx
EDAOBgNVBAcMB0hhbWJ1cmcxFDASBgNVBAoMC2hhdy1oYW1idXJnMQwwCgYDVQQL
DANTVlMxCzAJBgNVBAsMAjI0MSUwIwYDVQQDDBxKb2FvIEZpbGlwZSBTaWx2YSBk
ZSBBbG1laWRhMIICIjANBgkqhkiG9w0BAQEFAAOCAg8AMIICCgKCAgEAwbzvlLfk
+mmifsyfcjls2tpT6O5y9PxveA8ojj9895zUgqNtxbDeJ6qiKXK5mxym8iZKvEma
R3xTOT662blP2maW9EAEZxxRjtvX7bz5hk2oGA/9TTOhBBc13DV/xMWx/YYhehoG
3b2OhEChtvuD0Zf/drdUTXYKemdmKAR8UxXg0dFr9p8+AxqgY2xW1zJkHIPVoaXR
5+7y8+14I5ui7EF4y2mWhE4bjgSqEpomvkki0wRTGuov8xN/N3B6tHzryKwiFIl3
6XpXcyukjs1J2SDrlF6ODM4/rLh4tN4kpdSwcjUlSAz6bBmdVm/3BeqPBsZX6QeC
mWAf5wmems65NTs6lyLEnTm96XEVd9ejQbcohRTkaexFgCvBWMBQFVCAkxfj3g15
UvYcLrGFdK0LcpD8RStUtW4v/iTmxRazquxqUWLc1QCLTNrzkAZiF4bldexQ04yr
rOUqMbck5tA5JfF0Vr6Bu9FcIc1vVzk9AEAacRJFmN0t0AT3gy8ixwGJTlrHgUxx
I+aK7mxXYOppJzjtxpxDT6u1IIJ01TdzE0C6gaPTbSYKkT/jcBDwXKLdGYJN2g5O
npeJKz1439OyunPif4KzEo4/QoocRZtU2lJD/iNk4B4LZnvx/47H0rFCUZT7Y6Fj
dC0Nk7GeCISnEyhq7qan35x3T3FtOCdeXisCAwEAAaOBojCBnzAOBgNVHQ8BAf8E
BAMCB4AwCQYDVR0TBAIwADATBgNVHSUEDDAKBggrBgEFBQcDAjAdBgNVHQ4EFgQU
e/J1cIV0p8n2X+aWgUlcaKERV50wHwYDVR0jBBgwFoAUM68W8GrJ+JMenQ0KLO00
JKbnF4swLQYDVR0RBCYwJIEiSm9hby5TaWx2YWRlQWxtZWlkYUBoYXctaGFtYnVy
Zy5kZTANBgkqhkiG9w0BAQsFAAOCAgEABPAd1WP5j3bmlprKgtrxn+cRvGiGNcBk
xdyVnIIX5PHHdfTiy8xM4ebrxaCRtX6rB6I6wsJEPLo4ZsF2BZQW25sbeD449jN6
WWBfDAaa5XKv+2JrJdrlf0eCl8nYrcsN8y3q1ObI/OFtiO5xlFH2nWr4Kcxsd255
8UDp7VF8x1kHfaFNPiFH5uo3aSRTXztHbzPRCZrbSblZts2VHER2keBae1OUxRxI
nyFe14vm10s1xLmAUAHYbKoaN8ETzeTCjIyIzWMLac5hLLYkvtqpyYW9oE/5ZNzE
jZtmoxUDUx8NTRMiXxQfCF1gF2dBiSj1usojrghssqhMzv0yU+HQ3zLFY/GCP0zj
gYhcvnFIzqtS6FpuVpF3VrbqfNWNtUHXLwwkDkwprEhQNSsQ+0mEOSVqj/Q5PB9r
vda+OIevAH97c60x+Q8zjn23p0ZL4p0JPy7j9X8W1g5rOctqWKl3R+kK5hTDiRXB
bLsJ9ind+0iifqFlrnQYnU1Oh+6nbRVNDwYbY3I1n9eSK5SDU592HVpUCnOTbuaQ
hu+J3ZdR/E4/0ZPinBagAn9C6GpPBiAF4DoFfecr6Zu19Jg7bDR+qIQ1J640eEGK
S/2kzeEJk8ENnKrNx2pq7CmmEY8VOpSuRpBYuT5y7bUbr5IEjGJ2CL1KYek2fIJD
J3mfsRp+N1o=
-----END CERTIFICATE-----
