Certificate:
    Data:
        Version: 3 (0x2)
        Serial Number: 1 (0x1)
        Signature Algorithm: sha256WithRSAEncryption
        Issuer: C=DE, ST=Hamburg, O=haw-hamburg, OU=SVS, CN=Sub-CA-24-User
        Validity
            Not Before: Jul  2 16:09:19 2022 GMT
            Not After : Jun 29 16:09:19 2023 GMT
        Subject: C=DE, ST=Hamburg, L=Hamburg, O=haw-hamburg, OU=SVS, OU=24, CN=Joao Filipe Silva de Almeida
        Subject Public Key Info:
            Public Key Algorithm: rsaEncryption
                RSA Public-Key: (4096 bit)
                Modulus:
                    00:b4:20:d6:11:a9:bf:10:73:0a:d4:3d:b6:b7:7b:
                    93:a1:b5:18:4e:16:5f:44:06:92:e0:c0:92:7b:d4:
                    82:58:d4:4a:19:74:8a:2d:f3:26:c2:46:98:17:ce:
                    96:b2:c6:a1:28:9f:b2:38:ad:0c:6a:83:23:33:d6:
                    b5:dd:b4:bb:f0:76:8c:2c:9f:ce:3f:00:ec:f6:13:
                    95:2e:df:15:ce:56:0b:d3:f3:30:2e:fc:9e:14:2d:
                    7d:87:fb:44:d1:bc:e6:6f:13:8d:34:9e:5b:d3:db:
                    2b:57:fe:2f:f2:44:91:2e:1e:f8:8c:be:1d:88:78:
                    44:e8:26:d3:09:c1:18:fa:e6:fe:2b:fa:b1:0e:21:
                    6a:61:98:49:24:35:b4:07:0a:0c:0f:13:da:16:22:
                    e3:e0:8f:45:71:80:b3:93:5f:c7:5b:34:aa:be:1c:
                    5a:b0:71:df:1d:cd:e0:7a:f0:2c:1b:da:b3:08:3e:
                    54:28:09:0b:b7:03:1a:4e:0f:f9:43:2a:d8:a7:67:
                    90:c0:a9:5a:2d:48:38:d3:e1:1c:c7:af:b5:7d:36:
                    28:62:08:be:da:1f:b0:30:9f:28:66:d0:31:24:74:
                    43:55:54:84:46:fc:bc:f8:d8:dd:25:ec:8c:c0:f8:
                    b9:3e:96:54:cf:1f:4a:f9:f9:b9:d9:9a:27:7b:5f:
                    ff:45:04:ec:cb:4a:cf:b0:14:a2:da:01:77:5e:75:
                    ef:bf:12:88:7a:8a:75:00:ce:f0:2d:90:a3:75:53:
                    a3:ac:ce:3f:ed:eb:7b:1e:a2:f4:9e:e3:f7:00:6a:
                    af:8b:9f:c0:43:a1:bb:31:53:60:44:63:6e:32:c2:
                    c4:91:28:8a:45:40:11:f3:a4:02:be:70:8f:d2:fe:
                    f6:97:c4:6d:b0:76:ab:1c:1b:c8:0d:e2:a8:07:09:
                    a5:f5:29:5e:d8:87:6e:ae:dc:ab:34:69:a5:04:45:
                    30:e5:b2:fe:4f:e0:2a:0b:35:4a:4c:d3:89:f8:97:
                    c2:6e:ec:27:c7:aa:45:3f:3c:b1:7f:4f:96:b2:90:
                    67:5a:bf:9e:1b:37:63:f3:14:3e:24:82:fe:dd:b9:
                    72:07:ce:a6:3a:37:3c:07:a1:74:6b:4e:f9:31:ff:
                    88:88:a5:66:7b:8e:5d:9e:e0:f3:44:8b:ef:e5:c0:
                    33:94:98:52:03:ff:b2:1f:a8:95:1d:5a:f2:cc:f1:
                    1c:b2:94:10:67:b5:22:04:a6:5c:f0:c5:74:b2:aa:
                    4f:87:fd:6a:b7:cd:15:da:3e:da:71:f1:b5:61:51:
                    76:c3:73:a0:65:9c:fa:ec:cc:21:ff:ea:02:8c:2b:
                    79:6f:95:6d:dd:ef:24:fd:a3:5d:bf:89:56:20:c7:
                    ae:f8:e7
                Exponent: 65537 (0x10001)
        X509v3 extensions:
            X509v3 Key Usage: critical
                Digital Signature
            X509v3 Basic Constraints: 
                CA:FALSE
            X509v3 Extended Key Usage: 
                TLS Web Client Authentication
            X509v3 Subject Key Identifier: 
                A5:9A:C0:B3:2C:10:D2:73:F7:A4:05:0C:BD:E5:C8:BC:EC:F4:BB:1A
            X509v3 Authority Key Identifier: 
                keyid:D3:B9:32:20:C3:A8:83:27:66:F6:A8:FD:B1:CC:D8:64:02:CD:47:83

            X509v3 Subject Alternative Name: 
                email:Joao.SilvadeAlmeida@haw-hamburg.de
    Signature Algorithm: sha256WithRSAEncryption
         9d:2c:fd:e8:dd:6c:a8:a9:41:94:d1:fe:db:1e:e8:bf:f6:c5:
         a3:b0:1a:f7:c9:94:f4:42:28:b7:33:4e:cd:cc:67:eb:0d:8c:
         67:90:c3:31:f1:6a:23:04:69:be:ef:58:f2:4d:10:aa:e1:b8:
         e6:07:3f:e6:23:7b:dc:28:d6:8a:c2:d4:70:a0:68:ca:89:10:
         55:b2:d4:5f:7e:3e:f5:60:c1:26:fe:ce:e8:7f:6f:56:39:75:
         5a:41:68:6f:56:ad:21:93:2d:95:ca:7a:92:c7:8d:12:24:aa:
         25:92:41:47:9a:c8:af:9e:61:36:3f:13:47:3d:53:d9:3b:09:
         3e:14:5a:d5:0e:0f:90:2b:2f:e2:2a:81:48:1f:71:44:1e:ec:
         26:8f:8b:a4:47:ad:c6:86:88:4a:bd:ea:b1:7e:ec:ac:21:6b:
         f9:02:2a:dd:6f:de:a3:41:99:53:a0:7c:80:ec:a1:53:3e:51:
         3f:21:5f:7f:09:a4:16:63:23:83:24:28:9f:37:10:52:14:a3:
         e1:34:f0:48:af:d1:27:b5:83:dc:df:9b:dc:34:52:a2:6b:0c:
         0a:54:8c:b9:74:2a:cb:c0:71:c4:be:88:0f:88:bb:2c:ed:74:
         33:a6:72:d1:09:79:1e:af:e3:29:fb:eb:b5:49:4d:2c:d7:ee:
         df:e5:72:dc:0f:4b:7f:6e:dc:0e:71:8f:63:46:4c:6d:de:f7:
         2b:19:0e:9a:f3:1c:ed:18:99:ec:ff:bb:e1:a4:14:53:a6:eb:
         54:58:fd:e8:36:9a:50:3a:36:98:ee:c0:bb:71:8c:10:52:c2:
         2f:d7:87:77:db:d7:77:4c:76:cf:f2:e3:11:75:55:57:8c:0c:
         86:e7:d3:d0:41:d2:ff:35:76:9f:11:94:b0:38:b4:e4:d9:e5:
         04:4d:a6:8d:d6:c5:80:16:3d:fa:e1:72:95:63:dd:12:b4:2f:
         71:ee:a4:53:70:eb:25:15:96:10:28:15:c7:c3:a3:f4:e2:7b:
         ab:ef:cf:41:2a:6c:8c:2d:02:11:06:b4:e3:3d:c4:67:a4:1c:
         c7:43:bd:fc:a9:57:e2:7a:d2:5f:51:eb:59:ed:94:c2:59:ea:
         3e:73:ce:50:18:1d:7c:df:32:22:ef:ee:af:e4:19:68:cd:65:
         3f:7f:b1:1e:af:e5:38:f6:5e:a5:9b:1a:5a:d2:1e:f6:10:ad:
         85:69:82:89:67:f7:0d:50:66:28:34:c2:b2:f2:15:8f:43:02:
         a9:81:2f:7d:f6:1c:9f:ac:f8:3c:21:82:ff:c0:c8:f3:4b:af:
         74:1e:57:c2:38:65:d8:0a:e0:a1:44:71:59:64:41:82:76:b0:
         0d:a7:11:41:ac:7d:fa:15
-----BEGIN CERTIFICATE-----
MIIGBDCCA+ygAwIBAgIBATANBgkqhkiG9w0BAQsFADBcMQswCQYDVQQGEwJERTEQ
MA4GA1UECAwHSGFtYnVyZzEUMBIGA1UECgwLaGF3LWhhbWJ1cmcxDDAKBgNVBAsM
A1NWUzEXMBUGA1UEAwwOU3ViLUNBLTI0LVVzZXIwHhcNMjIwNzAyMTYwOTE5WhcN
MjMwNjI5MTYwOTE5WjCBiTELMAkGA1UEBhMCREUxEDAOBgNVBAgMB0hhbWJ1cmcx
EDAOBgNVBAcMB0hhbWJ1cmcxFDASBgNVBAoMC2hhdy1oYW1idXJnMQwwCgYDVQQL
DANTVlMxCzAJBgNVBAsMAjI0MSUwIwYDVQQDDBxKb2FvIEZpbGlwZSBTaWx2YSBk
ZSBBbG1laWRhMIICIjANBgkqhkiG9w0BAQEFAAOCAg8AMIICCgKCAgEAtCDWEam/
EHMK1D22t3uTobUYThZfRAaS4MCSe9SCWNRKGXSKLfMmwkaYF86WssahKJ+yOK0M
aoMjM9a13bS78HaMLJ/OPwDs9hOVLt8VzlYL0/MwLvyeFC19h/tE0bzmbxONNJ5b
09srV/4v8kSRLh74jL4diHhE6CbTCcEY+ub+K/qxDiFqYZhJJDW0BwoMDxPaFiLj
4I9FcYCzk1/HWzSqvhxasHHfHc3gevAsG9qzCD5UKAkLtwMaTg/5QyrYp2eQwKla
LUg40+Ecx6+1fTYoYgi+2h+wMJ8oZtAxJHRDVVSERvy8+NjdJeyMwPi5PpZUzx9K
+fm52Zone1//RQTsy0rPsBSi2gF3XnXvvxKIeop1AM7wLZCjdVOjrM4/7et7HqL0
nuP3AGqvi5/AQ6G7MVNgRGNuMsLEkSiKRUAR86QCvnCP0v72l8RtsHarHBvIDeKo
Bwml9Sle2IdurtyrNGmlBEUw5bL+T+AqCzVKTNOJ+JfCbuwnx6pFPzyxf0+WspBn
Wr+eGzdj8xQ+JIL+3blyB86mOjc8B6F0a075Mf+IiKVme45dnuDzRIvv5cAzlJhS
A/+yH6iVHVryzPEcspQQZ7UiBKZc8MV0sqpPh/1qt80V2j7acfG1YVF2w3OgZZz6
7Mwh/+oCjCt5b5Vt3e8k/aNdv4lWIMeu+OcCAwEAAaOBojCBnzAOBgNVHQ8BAf8E
BAMCB4AwCQYDVR0TBAIwADATBgNVHSUEDDAKBggrBgEFBQcDAjAdBgNVHQ4EFgQU
pZrAsywQ0nP3pAUMveXIvOz0uxowHwYDVR0jBBgwFoAU07kyIMOogydm9qj9sczY
ZALNR4MwLQYDVR0RBCYwJIEiSm9hby5TaWx2YWRlQWxtZWlkYUBoYXctaGFtYnVy
Zy5kZTANBgkqhkiG9w0BAQsFAAOCAgEAnSz96N1sqKlBlNH+2x7ov/bFo7Aa98mU
9EIotzNOzcxn6w2MZ5DDMfFqIwRpvu9Y8k0QquG45gc/5iN73CjWisLUcKBoyokQ
VbLUX34+9WDBJv7O6H9vVjl1WkFob1atIZMtlcp6kseNEiSqJZJBR5rIr55hNj8T
Rz1T2TsJPhRa1Q4PkCsv4iqBSB9xRB7sJo+LpEetxoaISr3qsX7srCFr+QIq3W/e
o0GZU6B8gOyhUz5RPyFffwmkFmMjgyQonzcQUhSj4TTwSK/RJ7WD3N+b3DRSomsM
ClSMuXQqy8BxxL6ID4i7LO10M6Zy0Ql5Hq/jKfvrtUlNLNfu3+Vy3A9Lf27cDnGP
Y0ZMbd73KxkOmvMc7RiZ7P+74aQUU6brVFj96DaaUDo2mO7Au3GMEFLCL9eHd9vX
d0x2z/LjEXVVV4wMhufT0EHS/zV2nxGUsDi05NnlBE2mjdbFgBY9+uFylWPdErQv
ce6kU3DrJRWWECgVx8Oj9OJ7q+/PQSpsjC0CEQa04z3EZ6Qcx0O9/KlX4nrSX1Hr
We2UwlnqPnPOUBgdfN8yIu/ur+QZaM1lP3+xHq/lOPZepZsaWtIe9hCthWmCiWf3
DVBmKDTCsvIVj0MCqYEvffYcn6z4PCGC/8DI80uvdB5Xwjhl2ArgoURxWWRBgnaw
DacRQax9+hU=
-----END CERTIFICATE-----
