Certificate:
    Data:
        Version: 3 (0x2)
        Serial Number: 1 (0x1)
        Signature Algorithm: sha256WithRSAEncryption
        Issuer: C=DE, ST=Hamburg, O=haw-hamburg, OU=SVS, CN=Sub-CA-24
        Validity
            Not Before: Jun 23 15:50:02 2022 GMT
            Not After : Jun 20 15:50:02 2023 GMT
        Subject: C=DE, ST=Hamburg, O=haw-hamburg, OU=SVS, CN=svs24.ful.informatik.haw-hamburg.de
        Subject Public Key Info:
            Public Key Algorithm: rsaEncryption
                RSA Public-Key: (2048 bit)
                Modulus:
                    00:b4:dc:19:13:ae:cb:f6:4e:66:8c:52:88:87:2c:
                    ed:7d:8b:95:38:52:da:ac:2e:8c:c3:74:91:cb:b8:
                    ca:03:2c:7f:e1:89:df:23:ab:06:7b:95:a1:6b:51:
                    ce:14:00:df:d7:d4:a7:3c:55:99:9b:13:7e:3d:fd:
                    ee:3e:60:78:41:64:9c:31:3a:d5:55:8b:b6:15:17:
                    04:c2:1d:c9:68:03:b2:a1:20:70:73:fb:e5:b9:7a:
                    9f:ef:54:c1:37:86:d9:7a:e6:d1:93:fe:54:75:21:
                    00:dd:17:74:6b:c4:79:ae:4a:71:bc:fb:f4:4c:1f:
                    5a:ff:25:b8:86:72:38:4e:75:34:e1:12:1a:09:e2:
                    e0:48:61:76:4a:66:87:c3:ef:99:1d:70:12:01:9a:
                    96:75:0a:68:95:7d:37:43:ae:9b:42:c0:12:87:b1:
                    24:72:2a:f2:cc:ea:c1:b6:56:5b:61:80:eb:68:fc:
                    6a:b6:99:fe:44:06:2d:b6:a9:34:e5:5b:7c:75:6c:
                    80:6c:76:73:09:cf:3d:4b:c1:49:94:d3:85:51:7c:
                    3a:77:da:f4:71:1e:75:f2:d8:dd:17:1c:72:82:2d:
                    2f:87:14:e8:d5:b4:3a:09:08:07:db:60:e5:2f:ee:
                    a0:1b:cf:e2:e4:2b:6d:0a:49:87:0d:b3:87:8d:ae:
                    6a:35
                Exponent: 65537 (0x10001)
        X509v3 extensions:
            X509v3 Key Usage: critical
                Digital Signature, Key Encipherment
            X509v3 Basic Constraints: 
                CA:FALSE
            X509v3 Extended Key Usage: 
                TLS Web Server Authentication, TLS Web Client Authentication
            X509v3 Subject Key Identifier: 
                A2:72:11:89:8E:13:5B:8E:9E:C6:FE:06:F0:EC:6C:C7:A3:35:E0:2C
            X509v3 Authority Key Identifier: 
                keyid:7B:08:AF:03:AB:CF:E9:CE:2D:9C:1F:EF:BD:42:EC:CC:6C:73:D5:AD

            X509v3 Subject Alternative Name: 
                DNS:svs24.ful.informatik.haw-hamburg.de, DNS:www.svs24.ful.informatik.haw-hamburg.de
    Signature Algorithm: sha256WithRSAEncryption
         30:7c:cd:98:81:92:43:25:84:40:f2:39:68:7f:dc:41:7f:5c:
         54:f1:21:ee:ce:4d:4e:41:17:33:bc:67:12:a0:85:68:99:88:
         29:c3:a0:31:a9:a5:a0:8e:de:d0:69:5a:41:48:bb:a8:30:98:
         ad:22:f7:33:5d:54:46:31:11:8f:af:37:1e:57:e3:92:09:e1:
         97:87:00:f3:5b:44:6c:4e:77:09:cb:f9:67:3e:f5:b4:16:c9:
         a2:a2:c2:ad:47:5c:fd:8c:e2:16:02:e7:52:55:ea:04:55:3a:
         92:c7:45:02:4b:ac:ac:b0:29:db:b5:1c:ad:5e:60:49:7b:c8:
         45:ca:be:a5:58:86:8a:16:25:cb:22:94:75:8d:48:72:b7:0d:
         ae:d4:f1:7c:89:9b:e1:f2:13:a0:d1:7a:d2:fd:7f:fe:fa:96:
         fe:8d:db:c6:a4:ff:d7:f9:df:d4:df:db:4e:8b:b1:03:1a:0e:
         b1:f8:c9:e4:fe:76:a2:43:f4:25:0d:0c:ea:c4:94:a8:37:38:
         ce:4f:15:a0:2e:fa:b5:e2:1e:f3:34:97:03:ff:44:01:48:54:
         11:2a:91:0c:0b:b1:92:fd:62:0f:e9:70:86:90:bb:6b:be:86:
         b5:b5:4e:3f:dd:66:3a:f2:ef:e2:db:7a:44:b4:74:05:0a:53:
         7b:d5:26:13
-----BEGIN CERTIFICATE-----
MIIEGjCCAwKgAwIBAgIBATANBgkqhkiG9w0BAQsFADBXMQswCQYDVQQGEwJERTEQ
MA4GA1UECBMHSGFtYnVyZzEUMBIGA1UEChMLaGF3LWhhbWJ1cmcxDDAKBgNVBAsT
A1NWUzESMBAGA1UEAxMJU3ViLUNBLTI0MB4XDTIyMDYyMzE1NTAwMloXDTIzMDYy
MDE1NTAwMlowcTELMAkGA1UEBhMCREUxEDAOBgNVBAgTB0hhbWJ1cmcxFDASBgNV
BAoTC2hhdy1oYW1idXJnMQwwCgYDVQQLEwNTVlMxLDAqBgNVBAMTI3N2czI0LmZ1
bC5pbmZvcm1hdGlrLmhhdy1oYW1idXJnLmRlMIIBIjANBgkqhkiG9w0BAQEFAAOC
AQ8AMIIBCgKCAQEAtNwZE67L9k5mjFKIhyztfYuVOFLarC6Mw3SRy7jKAyx/4Ynf
I6sGe5Wha1HOFADf19SnPFWZmxN+Pf3uPmB4QWScMTrVVYu2FRcEwh3JaAOyoSBw
c/vluXqf71TBN4bZeubRk/5UdSEA3Rd0a8R5rkpxvPv0TB9a/yW4hnI4TnU04RIa
CeLgSGF2SmaHw++ZHXASAZqWdQpolX03Q66bQsASh7EkciryzOrBtlZbYYDraPxq
tpn+RAYttqk05Vt8dWyAbHZzCc89S8FJlNOFUXw6d9r0cR518tjdFxxygi0vhxTo
1bQ6CQgH22DlL+6gG8/i5CttCkmHDbOHja5qNQIDAQABo4HWMIHTMA4GA1UdDwEB
/wQEAwIFoDAJBgNVHRMEAjAAMB0GA1UdJQQWMBQGCCsGAQUFBwMBBggrBgEFBQcD
AjAdBgNVHQ4EFgQUonIRiY4TW46exv4G8Oxsx6M14CwwHwYDVR0jBBgwFoAUewiv
A6vP6c4tnB/vvULszGxz1a0wVwYDVR0RBFAwToIjc3ZzMjQuZnVsLmluZm9ybWF0
aWsuaGF3LWhhbWJ1cmcuZGWCJ3d3dy5zdnMyNC5mdWwuaW5mb3JtYXRpay5oYXct
aGFtYnVyZy5kZTANBgkqhkiG9w0BAQsFAAOCAQEAMHzNmIGSQyWEQPI5aH/cQX9c
VPEh7s5NTkEXM7xnEqCFaJmIKcOgMamloI7e0GlaQUi7qDCYrSL3M11URjERj683
Hlfjkgnhl4cA81tEbE53Ccv5Zz71tBbJoqLCrUdc/YziFgLnUlXqBFU6ksdFAkus
rLAp27UcrV5gSXvIRcq+pViGihYlyyKUdY1IcrcNrtTxfImb4fIToNF60v1//vqW
/o3bxqT/1/nf1N/bTouxAxoOsfjJ5P52okP0JQ0M6sSUqDc4zk8VoC76teIe8zSX
A/9EAUhUESqRDAuxkv1iD+lwhpC7a76GtbVOP91mOvLv4tt6RLR0BQpTe9UmEw==
-----END CERTIFICATE-----
