Certificate:
    Data:
        Version: 3 (0x2)
        Serial Number: 1 (0x1)
        Signature Algorithm: sha256WithRSAEncryption
        Issuer: C=DE, ST=Hamburg, O=haw-hamburg, OU=SVS, CN=Sub-CA-24
        Validity
            Not Before: Jun 23 15:39:23 2022 GMT
            Not After : Jun 20 15:39:23 2023 GMT
        Subject: C=DE, ST=Hamburg, O=haw-hamburg, OU=SVS, CN=svs24.ful.informatik.haw-hamburg.de
        Subject Public Key Info:
            Public Key Algorithm: rsaEncryption
                RSA Public-Key: (2048 bit)
                Modulus:
                    00:da:8f:84:b1:cb:52:6f:40:04:e2:d6:d6:ce:92:
                    4c:48:bd:10:aa:d5:3c:61:df:a4:12:53:8f:99:b6:
                    51:19:b1:c0:39:9e:92:07:31:b0:41:01:d3:68:15:
                    03:1e:07:ab:24:59:3f:ef:6c:f6:a8:2b:e1:28:e6:
                    f2:01:67:e7:03:c8:3c:c8:50:de:c3:c9:0d:ad:b9:
                    be:02:0b:80:ea:33:e9:eb:06:25:66:55:db:44:78:
                    aa:30:79:a6:08:a0:44:62:f0:7f:dd:72:08:f9:9d:
                    6f:1b:26:d1:23:7c:b5:90:5d:13:2d:4d:dc:ec:b0:
                    d8:99:85:14:c6:1e:4b:76:62:a1:7e:c5:c1:d5:56:
                    a5:9e:10:d9:9c:99:3f:80:7e:b8:95:bc:3b:b6:b8:
                    8f:d8:6c:c2:76:e9:20:67:00:b2:e6:17:0b:1e:42:
                    7f:6a:65:d5:7e:9d:4f:b0:9e:62:76:2d:4d:0a:6b:
                    6e:b4:ad:2b:63:59:76:89:ec:a0:5e:17:8a:79:da:
                    84:2b:46:86:af:78:1b:37:3b:49:72:e1:4c:12:27:
                    95:a9:52:d4:3d:bd:5b:63:fb:a3:ce:bf:d2:62:6c:
                    9f:8a:ed:ba:5a:3b:25:4a:11:7c:77:ca:54:de:41:
                    36:14:99:b8:29:1e:00:36:28:9c:d3:04:80:29:44:
                    35:eb
                Exponent: 65537 (0x10001)
        X509v3 extensions:
            X509v3 Key Usage: critical
                Digital Signature, Key Encipherment
            X509v3 Basic Constraints: 
                CA:FALSE
            X509v3 Extended Key Usage: 
                TLS Web Server Authentication, TLS Web Client Authentication
            X509v3 Subject Key Identifier: 
                CB:18:25:8D:38:63:22:98:D2:AB:01:D0:88:69:BD:03:A1:EF:02:BF
            X509v3 Authority Key Identifier: 
                keyid:54:CB:02:6E:9B:88:C0:FC:C5:98:33:DB:F8:AE:28:58:22:67:DF:79

            X509v3 Subject Alternative Name: 
                DNS:svs24.ful.informatik.haw-hamburg.de, DNS:www.svs24.ful.informatik.haw-hamburg.de
    Signature Algorithm: sha256WithRSAEncryption
         8a:d5:be:8a:3e:9b:50:2e:5d:b4:a0:19:5e:22:45:29:0d:85:
         da:79:2a:79:b2:4a:c5:64:0d:63:ef:d9:9e:77:2d:79:fe:cd:
         fc:f2:44:ed:d0:67:09:ea:c8:92:04:48:38:67:c7:54:cb:bf:
         c5:4b:83:48:31:7a:a8:7c:e5:bb:d7:6d:c6:da:80:18:e2:b5:
         79:2a:ea:46:3a:0b:25:ee:d5:df:f1:0b:77:68:c1:d2:0c:f5:
         17:4d:7e:6e:7d:8d:ae:9b:4a:79:f8:72:3f:79:ec:84:88:f6:
         07:11:f9:3f:1b:0d:6d:f4:01:23:76:53:34:45:fd:56:0a:58:
         fe:58:11:fd:55:64:14:8d:e5:1f:71:d2:45:82:c1:c9:18:b8:
         e3:df:aa:4f:d8:c9:e8:fe:91:7d:52:ab:5e:8c:ec:0f:58:8d:
         5a:88:ab:cd:b1:0d:59:97:d7:bc:54:9d:5f:a8:af:42:61:5c:
         e2:55:e4:92:a6:7a:e8:e7:c8:43:26:8e:e1:3b:c7:1d:01:34:
         86:93:0a:78:de:23:66:1e:f2:81:ab:d5:f4:50:40:3b:85:de:
         e9:74:be:db:20:18:92:fc:37:43:f9:3a:e5:7c:62:06:99:5f:
         6f:3a:02:d6:91:d8:36:62:b9:3e:d4:62:55:93:3a:f9:73:91:
         49:25:9b:70
-----BEGIN CERTIFICATE-----
MIIEGjCCAwKgAwIBAgIBATANBgkqhkiG9w0BAQsFADBXMQswCQYDVQQGEwJERTEQ
MA4GA1UECBMHSGFtYnVyZzEUMBIGA1UEChMLaGF3LWhhbWJ1cmcxDDAKBgNVBAsT
A1NWUzESMBAGA1UEAxMJU3ViLUNBLTI0MB4XDTIyMDYyMzE1MzkyM1oXDTIzMDYy
MDE1MzkyM1owcTELMAkGA1UEBhMCREUxEDAOBgNVBAgTB0hhbWJ1cmcxFDASBgNV
BAoTC2hhdy1oYW1idXJnMQwwCgYDVQQLEwNTVlMxLDAqBgNVBAMTI3N2czI0LmZ1
bC5pbmZvcm1hdGlrLmhhdy1oYW1idXJnLmRlMIIBIjANBgkqhkiG9w0BAQEFAAOC
AQ8AMIIBCgKCAQEA2o+EsctSb0AE4tbWzpJMSL0QqtU8Yd+kElOPmbZRGbHAOZ6S
BzGwQQHTaBUDHgerJFk/72z2qCvhKObyAWfnA8g8yFDew8kNrbm+AguA6jPp6wYl
ZlXbRHiqMHmmCKBEYvB/3XII+Z1vGybRI3y1kF0TLU3c7LDYmYUUxh5LdmKhfsXB
1ValnhDZnJk/gH64lbw7triP2GzCdukgZwCy5hcLHkJ/amXVfp1PsJ5idi1NCmtu
tK0rY1l2ieygXheKedqEK0aGr3gbNztJcuFMEieVqVLUPb1bY/ujzr/SYmyfiu26
WjslShF8d8pU3kE2FJm4KR4ANiic0wSAKUQ16wIDAQABo4HWMIHTMA4GA1UdDwEB
/wQEAwIFoDAJBgNVHRMEAjAAMB0GA1UdJQQWMBQGCCsGAQUFBwMBBggrBgEFBQcD
AjAdBgNVHQ4EFgQUyxgljThjIpjSqwHQiGm9A6HvAr8wHwYDVR0jBBgwFoAUVMsC
bpuIwPzFmDPb+K4oWCJn33kwVwYDVR0RBFAwToIjc3ZzMjQuZnVsLmluZm9ybWF0
aWsuaGF3LWhhbWJ1cmcuZGWCJ3d3dy5zdnMyNC5mdWwuaW5mb3JtYXRpay5oYXct
aGFtYnVyZy5kZTANBgkqhkiG9w0BAQsFAAOCAQEAitW+ij6bUC5dtKAZXiJFKQ2F
2nkqebJKxWQNY+/Znnctef7N/PJE7dBnCerIkgRIOGfHVMu/xUuDSDF6qHzlu9dt
xtqAGOK1eSrqRjoLJe7V3/ELd2jB0gz1F01+bn2NrptKefhyP3nshIj2BxH5PxsN
bfQBI3ZTNEX9VgpY/lgR/VVkFI3lH3HSRYLByRi449+qT9jJ6P6RfVKrXozsD1iN
WoirzbENWZfXvFSdX6ivQmFc4lXkkqZ66OfIQyaO4TvHHQE0hpMKeN4jZh7ygavV
9FBAO4Xe6XS+2yAYkvw3Q/k65XxiBplfbzoC1pHYNmK5PtRiVZM6+XORSSWbcA==
-----END CERTIFICATE-----
