Certificate:
    Data:
        Version: 3 (0x2)
        Serial Number: 1 (0x1)
        Signature Algorithm: sha256WithRSAEncryption
        Issuer: C=DE, ST=Hamburg, O=haw-hamburg, OU=SVS, CN=Sub-CA-24
        Validity
            Not Before: Jun 23 14:32:41 2022 GMT
            Not After : Jun 20 14:32:41 2023 GMT
        Subject: C=DE, ST=Hamburg, O=haw-hamburg, OU=SVS, CN=svs24.ful.informatik.haw-hamburg.de
        Subject Public Key Info:
            Public Key Algorithm: rsaEncryption
                RSA Public-Key: (2048 bit)
                Modulus:
                    00:be:91:90:72:5d:6e:2d:8b:88:b2:ea:c0:1e:33:
                    9f:b0:76:72:a6:12:89:0e:da:91:fb:d7:a4:5c:a5:
                    a6:f3:ad:06:aa:68:e1:b9:4e:75:d0:d0:f4:3b:99:
                    52:ea:a2:75:0e:14:67:06:b2:0b:13:b6:48:6b:3f:
                    af:ed:67:2c:d9:91:0d:13:14:73:24:8a:d7:10:9e:
                    68:9f:60:a2:6e:d4:fa:89:e8:f6:0b:e2:58:ba:3e:
                    81:47:fb:aa:5f:b3:5e:a4:70:5c:07:25:39:40:ee:
                    a8:a8:04:bc:fc:1e:49:f2:e1:51:02:9b:31:39:8e:
                    4e:de:91:20:3e:d1:d2:a7:06:a6:87:e1:7f:07:9b:
                    81:45:3c:95:89:14:69:70:a8:3c:35:77:c8:2a:fe:
                    34:85:fd:e4:0a:01:3a:3a:84:f6:68:3f:f9:9c:81:
                    e8:6a:ac:d2:bd:c6:7f:58:e0:a0:05:a2:3a:70:32:
                    aa:6a:b2:b1:25:e7:61:88:09:71:05:87:3e:13:9a:
                    c4:57:6c:6d:4a:cc:80:59:19:9f:bd:84:19:3e:4a:
                    f3:2c:d5:1c:76:51:43:1b:82:c2:d0:e2:de:28:a3:
                    4c:30:22:a9:ab:7a:cc:50:2b:f4:c7:92:26:6c:92:
                    5b:82:81:97:b7:cb:76:c0:a4:29:fb:11:21:6b:e7:
                    12:13
                Exponent: 65537 (0x10001)
        X509v3 extensions:
            X509v3 Key Usage: critical
                Digital Signature, Key Encipherment
            X509v3 Basic Constraints: 
                CA:FALSE
            X509v3 Extended Key Usage: 
                TLS Web Server Authentication, TLS Web Client Authentication
            X509v3 Subject Key Identifier: 
                03:7F:72:56:86:3A:8E:38:70:8B:9E:C0:04:09:AE:6E:BF:34:3D:18
            X509v3 Authority Key Identifier: 
                keyid:BC:B2:70:BC:4B:FE:ED:31:C7:46:5A:11:A0:43:E6:8C:5F:F1:3D:9B

            X509v3 Subject Alternative Name: 
                DNS:svs24.ful.informatik.haw-hamburg.de, DNS:www.svs24.ful.informatik.haw-hamburg.de
    Signature Algorithm: sha256WithRSAEncryption
         b8:fe:37:7f:6d:a8:27:77:8b:ac:c4:ef:79:1b:81:b1:83:f1:
         eb:0e:85:b7:d1:6e:d3:c0:2f:f3:87:41:d3:85:fc:f2:f2:0e:
         ca:f5:02:88:8e:7d:28:9b:bd:be:5d:8d:96:d1:24:4f:c1:57:
         17:97:84:08:ed:7b:68:a9:a8:73:6e:61:a5:17:c4:f7:84:17:
         00:7e:e1:5b:3c:38:58:89:cc:39:d4:14:c6:9f:22:49:b3:af:
         2e:64:a1:2f:58:7d:73:e7:a7:7a:3e:3e:fe:db:4c:10:2f:f8:
         8b:9e:7f:5e:e1:dd:dd:13:44:98:65:8f:29:6a:e7:97:da:94:
         7d:7a:be:95:ad:09:2c:55:8b:9f:fd:d9:dd:98:c0:84:3e:2d:
         cf:a7:5c:aa:d0:92:f4:cc:be:b5:97:c1:0d:0d:5f:d8:79:96:
         d3:ca:cb:4b:a9:82:c3:a1:67:47:0c:b8:90:98:d7:56:ff:c2:
         9f:b8:e5:99:45:88:62:58:bc:2c:90:b2:73:1c:69:f5:45:d3:
         6e:0c:15:96:ae:53:d2:de:a2:c6:52:23:41:23:d2:e1:2e:7e:
         0c:b6:d4:45:df:cd:ad:a2:60:b2:a6:14:22:e0:f5:cc:21:b7:
         fb:ab:1f:77:af:de:af:c3:33:5f:1e:cd:cc:2d:22:6a:ce:b5:
         6f:0b:1b:36
-----BEGIN CERTIFICATE-----
MIIEGjCCAwKgAwIBAgIBATANBgkqhkiG9w0BAQsFADBXMQswCQYDVQQGEwJERTEQ
MA4GA1UECBMHSGFtYnVyZzEUMBIGA1UEChMLaGF3LWhhbWJ1cmcxDDAKBgNVBAsT
A1NWUzESMBAGA1UEAxMJU3ViLUNBLTI0MB4XDTIyMDYyMzE0MzI0MVoXDTIzMDYy
MDE0MzI0MVowcTELMAkGA1UEBhMCREUxEDAOBgNVBAgTB0hhbWJ1cmcxFDASBgNV
BAoTC2hhdy1oYW1idXJnMQwwCgYDVQQLEwNTVlMxLDAqBgNVBAMTI3N2czI0LmZ1
bC5pbmZvcm1hdGlrLmhhdy1oYW1idXJnLmRlMIIBIjANBgkqhkiG9w0BAQEFAAOC
AQ8AMIIBCgKCAQEAvpGQcl1uLYuIsurAHjOfsHZyphKJDtqR+9ekXKWm860Gqmjh
uU510ND0O5lS6qJ1DhRnBrILE7ZIaz+v7Wcs2ZENExRzJIrXEJ5on2CibtT6iej2
C+JYuj6BR/uqX7NepHBcByU5QO6oqAS8/B5J8uFRApsxOY5O3pEgPtHSpwamh+F/
B5uBRTyViRRpcKg8NXfIKv40hf3kCgE6OoT2aD/5nIHoaqzSvcZ/WOCgBaI6cDKq
arKxJedhiAlxBYc+E5rEV2xtSsyAWRmfvYQZPkrzLNUcdlFDG4LC0OLeKKNMMCKp
q3rMUCv0x5ImbJJbgoGXt8t2wKQp+xEha+cSEwIDAQABo4HWMIHTMA4GA1UdDwEB
/wQEAwIFoDAJBgNVHRMEAjAAMB0GA1UdJQQWMBQGCCsGAQUFBwMBBggrBgEFBQcD
AjAdBgNVHQ4EFgQUA39yVoY6jjhwi57ABAmubr80PRgwHwYDVR0jBBgwFoAUvLJw
vEv+7THHRloRoEPmjF/xPZswVwYDVR0RBFAwToIjc3ZzMjQuZnVsLmluZm9ybWF0
aWsuaGF3LWhhbWJ1cmcuZGWCJ3d3dy5zdnMyNC5mdWwuaW5mb3JtYXRpay5oYXct
aGFtYnVyZy5kZTANBgkqhkiG9w0BAQsFAAOCAQEAuP43f22oJ3eLrMTveRuBsYPx
6w6Ft9Fu08Av84dB04X88vIOyvUCiI59KJu9vl2NltEkT8FXF5eECO17aKmoc25h
pRfE94QXAH7hWzw4WInMOdQUxp8iSbOvLmShL1h9c+enej4+/ttMEC/4i55/XuHd
3RNEmGWPKWrnl9qUfXq+la0JLFWLn/3Z3ZjAhD4tz6dcqtCS9My+tZfBDQ1f2HmW
08rLS6mCw6FnRwy4kJjXVv/Cn7jlmUWIYli8LJCycxxp9UXTbgwVlq5T0t6ixlIj
QSPS4S5+DLbURd/NraJgsqYUIuD1zCG3+6sfd6/er8MzXx7NzC0ias61bwsbNg==
-----END CERTIFICATE-----
