Certificate:
    Data:
        Version: 3 (0x2)
        Serial Number: 1 (0x1)
        Signature Algorithm: sha256WithRSAEncryption
        Issuer: C=DE, ST=Hamburg, O=haw-hamburg, OU=SVS, CN=Sub-CA-24
        Validity
            Not Before: Jul  2 16:09:03 2022 GMT
            Not After : Jun 29 16:09:03 2023 GMT
        Subject: C=DE, ST=Hamburg, O=haw-hamburg, OU=SVS, CN=svs24.ful.informatik.haw-hamburg.de
        Subject Public Key Info:
            Public Key Algorithm: rsaEncryption
                RSA Public-Key: (4096 bit)
                Modulus:
                    00:a3:0f:31:a7:c9:b7:0e:03:cd:9c:3c:46:82:6c:
                    57:e8:55:35:35:12:8b:03:17:48:74:2d:1b:ba:d1:
                    8e:97:c0:83:27:11:3f:56:ef:4a:f4:43:23:e5:61:
                    f4:1d:48:84:1d:3a:81:77:38:48:ee:f1:57:46:7d:
                    dc:1e:8f:1e:5e:8e:47:87:04:04:c6:ca:86:20:cb:
                    16:6c:a9:07:67:97:d3:e0:c3:e2:71:ef:2a:6e:a4:
                    b1:86:a7:cf:42:ca:44:ce:db:53:41:68:29:dc:11:
                    97:66:2e:e3:b6:49:eb:e9:3c:69:b2:74:aa:2b:2f:
                    67:e0:12:30:a2:92:1c:3c:25:55:b8:bb:be:aa:89:
                    9d:e6:58:d3:a3:a6:c4:3b:cb:1c:4e:c9:b8:e4:aa:
                    9a:b3:f4:ef:53:10:5a:4e:06:6e:ad:b9:6b:cc:ae:
                    d0:d9:6f:9c:0c:ab:84:d4:2e:f4:09:18:ea:6a:a4:
                    fd:77:0f:44:69:c4:36:cd:b7:59:c7:53:e4:e7:63:
                    58:1b:19:35:95:76:bf:d4:5e:64:fb:ed:8c:96:5c:
                    80:94:68:68:95:31:fe:a5:84:5d:db:0d:ec:f5:0f:
                    92:79:05:44:65:43:47:d5:7f:33:ca:52:b5:98:8d:
                    5e:12:1f:14:fe:f4:9f:28:06:bb:ba:f9:82:69:fc:
                    e6:4f:57:b0:73:c4:d4:34:3c:b4:d6:63:f3:d7:67:
                    eb:2f:fd:cd:0c:41:5f:31:67:da:96:86:6a:d5:92:
                    3c:a8:79:5d:de:61:47:5d:2e:7e:94:c1:2f:f9:06:
                    09:e6:cc:a7:eb:b8:9e:7d:52:24:57:ae:e5:e6:c7:
                    c1:07:d0:97:8d:49:25:1a:7c:92:58:f4:96:3f:f5:
                    0a:00:ef:e1:2c:b8:7a:e9:6c:de:9a:27:0e:5f:0d:
                    a4:af:a8:6c:ea:9e:4d:b5:22:dd:b6:3e:1e:28:81:
                    0b:01:12:db:18:22:c6:00:bd:39:74:9e:86:98:ac:
                    08:c6:09:5d:1b:62:e6:5b:ed:85:47:03:6f:97:bd:
                    d7:e1:7b:25:a9:6e:e1:c4:65:8d:30:64:e8:63:c1:
                    de:87:6c:4c:33:f9:b1:3a:a9:4f:79:b8:69:ec:25:
                    d8:c7:57:f4:66:18:0e:2c:45:53:48:99:15:f7:9f:
                    4e:92:f7:d8:fe:71:f7:97:09:ed:72:f6:cb:c2:6d:
                    1f:77:46:e5:26:14:ff:e0:a9:75:3c:a4:70:09:e6:
                    8a:3e:a7:63:ee:e6:a2:e7:b7:54:fb:6d:94:8c:56:
                    c5:fd:09:c9:a0:0a:80:36:75:80:82:d5:e4:89:70:
                    93:f1:cd:9a:6c:61:bc:3a:1e:ac:1d:fb:29:02:b0:
                    dd:f3:d3
                Exponent: 65537 (0x10001)
        X509v3 extensions:
            X509v3 Key Usage: critical
                Digital Signature, Key Encipherment
            X509v3 Basic Constraints: 
                CA:FALSE
            X509v3 Extended Key Usage: 
                TLS Web Server Authentication, TLS Web Client Authentication
            X509v3 Subject Key Identifier: 
                82:A6:6A:2F:46:C8:89:65:20:39:67:9C:BD:5A:E5:78:27:8D:97:36
            X509v3 Authority Key Identifier: 
                keyid:FA:64:41:E5:6B:17:64:0E:75:48:30:15:11:27:0F:73:08:EA:5F:D0

            X509v3 CRL Distribution Points: 

                Full Name:
                  URI:http://svs24.ful.informatik.haw-hamburg.de/tls-ca.crl

            X509v3 Subject Alternative Name: 
                DNS:svs24.ful.informatik.haw-hamburg.de, DNS:www.svs24.ful.informatik.haw-hamburg.de
    Signature Algorithm: sha256WithRSAEncryption
         57:f7:2a:74:43:79:c6:f0:fa:6c:79:cb:a7:7d:bf:bd:d9:cf:
         bc:69:7e:f3:38:b3:22:c6:72:8c:16:de:7e:3b:9d:ec:a8:af:
         93:9e:96:7d:0a:61:4d:97:67:da:35:62:a4:ba:b0:90:ce:a6:
         ee:48:0f:6c:d5:2e:cc:f9:01:da:29:a5:80:ae:69:2b:41:9a:
         1c:b6:9a:ce:24:73:5c:45:83:aa:1e:b9:2e:8a:44:62:ae:9a:
         da:1f:2c:a3:25:ff:0f:40:49:bd:92:ad:83:58:c0:72:0c:0f:
         fa:46:1f:fb:67:c5:a7:ae:27:b9:1e:b1:1a:60:2a:86:74:ee:
         7f:40:09:b9:93:92:b4:a9:7a:a1:2e:57:f9:f5:fb:9b:93:51:
         d9:93:25:a9:ab:ff:30:39:c8:db:24:d0:f8:4c:1c:74:60:9a:
         4d:68:ba:2b:a9:c5:a6:f8:56:15:db:ce:0e:d2:d7:4e:f0:0c:
         2f:f6:63:97:96:ec:f0:18:c3:c3:c3:bd:6c:6a:08:cc:69:fd:
         ed:bb:9a:7c:db:ed:50:01:ff:b3:a7:f4:25:44:83:f0:2a:f0:
         cb:fb:b7:bd:a4:90:34:3b:10:07:17:a7:78:42:ce:73:19:52:
         6d:f8:4b:8e:8d:1a:e8:a7:50:94:90:79:b1:50:0d:df:d5:ae:
         6d:0d:2a:dc:58:2c:46:d3:76:f4:4c:36:ed:32:44:6f:5e:c6:
         80:1f:fe:ab:3f:ae:4f:41:28:e6:91:cd:fa:fb:e1:5e:57:d9:
         21:b3:2b:5c:76:1c:af:83:68:4e:71:0f:9a:a0:f0:ec:17:8f:
         ec:bc:07:02:9b:25:4b:39:dd:56:3b:19:71:5e:04:11:df:7f:
         aa:55:1f:c4:7d:31:38:09:94:f1:c3:cd:78:2f:51:c2:25:2a:
         fa:fc:ab:d3:9a:56:90:3a:2f:d6:5c:cb:4d:eb:6b:16:f4:c2:
         7e:ad:70:c5:f2:72:b8:72:dc:a4:95:d3:a0:48:71:24:c1:86:
         d6:57:49:8c:8a:c2:8b:e7:8c:96:54:e7:ca:65:1e:9f:22:ef:
         4e:1a:94:ab:4f:28:e2:87:dc:44:86:2b:25:60:78:8d:f3:bf:
         57:8f:f0:09:3b:1b:54:6a:a3:c1:5d:3c:8f:b8:ed:c8:00:04:
         e4:a6:be:d1:6e:0e:28:06:40:4d:9d:42:a0:ea:7b:cf:3d:25:
         15:11:c0:e7:4d:86:da:e5:1a:4b:36:10:c9:9a:92:50:ff:53:
         00:54:82:12:f0:4e:91:91:fb:95:8d:28:15:51:22:04:09:94:
         8e:8f:67:9b:ac:3e:ab:5b:78:25:5f:ab:bb:3c:29:70:1d:99:
         e0:10:43:3e:b7:07:0d:66
-----BEGIN CERTIFICATE-----
MIIGZDCCBEygAwIBAgIBATANBgkqhkiG9w0BAQsFADBXMQswCQYDVQQGEwJERTEQ
MA4GA1UECAwHSGFtYnVyZzEUMBIGA1UECgwLaGF3LWhhbWJ1cmcxDDAKBgNVBAsM
A1NWUzESMBAGA1UEAwwJU3ViLUNBLTI0MB4XDTIyMDcwMjE2MDkwM1oXDTIzMDYy
OTE2MDkwM1owcTELMAkGA1UEBhMCREUxEDAOBgNVBAgMB0hhbWJ1cmcxFDASBgNV
BAoMC2hhdy1oYW1idXJnMQwwCgYDVQQLDANTVlMxLDAqBgNVBAMMI3N2czI0LmZ1
bC5pbmZvcm1hdGlrLmhhdy1oYW1idXJnLmRlMIICIjANBgkqhkiG9w0BAQEFAAOC
Ag8AMIICCgKCAgEAow8xp8m3DgPNnDxGgmxX6FU1NRKLAxdIdC0butGOl8CDJxE/
Vu9K9EMj5WH0HUiEHTqBdzhI7vFXRn3cHo8eXo5HhwQExsqGIMsWbKkHZ5fT4MPi
ce8qbqSxhqfPQspEzttTQWgp3BGXZi7jtknr6TxpsnSqKy9n4BIwopIcPCVVuLu+
qomd5ljTo6bEO8scTsm45Kqas/TvUxBaTgZurblrzK7Q2W+cDKuE1C70CRjqaqT9
dw9EacQ2zbdZx1Pk52NYGxk1lXa/1F5k++2MllyAlGholTH+pYRd2w3s9Q+SeQVE
ZUNH1X8zylK1mI1eEh8U/vSfKAa7uvmCafzmT1ewc8TUNDy01mPz12frL/3NDEFf
MWfaloZq1ZI8qHld3mFHXS5+lMEv+QYJ5syn67iefVIkV67l5sfBB9CXjUklGnyS
WPSWP/UKAO/hLLh66WzemicOXw2kr6hs6p5NtSLdtj4eKIELARLbGCLGAL05dJ6G
mKwIxgldG2LmW+2FRwNvl73X4XslqW7hxGWNMGToY8Heh2xMM/mxOqlPebhp7CXY
x1f0ZhgOLEVTSJkV959OkvfY/nH3lwntcvbLwm0fd0blJhT/4Kl1PKRwCeaKPqdj
7uai57dU+22UjFbF/QnJoAqANnWAgtXkiXCT8c2abGG8Oh6sHfspArDd89MCAwEA
AaOCAR8wggEbMA4GA1UdDwEB/wQEAwIFoDAJBgNVHRMEAjAAMB0GA1UdJQQWMBQG
CCsGAQUFBwMBBggrBgEFBQcDAjAdBgNVHQ4EFgQUgqZqL0bIiWUgOWecvVrleCeN
lzYwHwYDVR0jBBgwFoAU+mRB5WsXZA51SDAVEScPcwjqX9AwRgYDVR0fBD8wPTA7
oDmgN4Y1aHR0cDovL3N2czI0LmZ1bC5pbmZvcm1hdGlrLmhhdy1oYW1idXJnLmRl
L3Rscy1jYS5jcmwwVwYDVR0RBFAwToIjc3ZzMjQuZnVsLmluZm9ybWF0aWsuaGF3
LWhhbWJ1cmcuZGWCJ3d3dy5zdnMyNC5mdWwuaW5mb3JtYXRpay5oYXctaGFtYnVy
Zy5kZTANBgkqhkiG9w0BAQsFAAOCAgEAV/cqdEN5xvD6bHnLp32/vdnPvGl+8ziz
IsZyjBbefjud7Kivk56WfQphTZdn2jVipLqwkM6m7kgPbNUuzPkB2imlgK5pK0Ga
HLaaziRzXEWDqh65LopEYq6a2h8soyX/D0BJvZKtg1jAcgwP+kYf+2fFp64nuR6x
GmAqhnTuf0AJuZOStKl6oS5X+fX7m5NR2ZMlqav/MDnI2yTQ+EwcdGCaTWi6K6nF
pvhWFdvODtLXTvAML/Zjl5bs8BjDw8O9bGoIzGn97buafNvtUAH/s6f0JUSD8Crw
y/u3vaSQNDsQBxeneELOcxlSbfhLjo0a6KdQlJB5sVAN39WubQ0q3FgsRtN29Ew2
7TJEb17GgB/+qz+uT0Eo5pHN+vvhXlfZIbMrXHYcr4NoTnEPmqDw7BeP7LwHApsl
SzndVjsZcV4EEd9/qlUfxH0xOAmU8cPNeC9RwiUq+vyr05pWkDov1lzLTetrFvTC
fq1wxfJyuHLcpJXToEhxJMGG1ldJjIrCi+eMllTnymUenyLvThqUq08o4ofcRIYr
JWB4jfO/V4/wCTsbVGqjwV08j7jtyAAE5Ka+0W4OKAZATZ1CoOp7zz0lFRHA502G
2uUaSzYQyZqSUP9TAFSCEvBOkZH7lY0oFVEiBAmUjo9nm6w+q1t4JV+ruzwpcB2Z
4BBDPrcHDWY=
-----END CERTIFICATE-----
