Certificate:
    Data:
        Version: 3 (0x2)
        Serial Number: 1 (0x1)
        Signature Algorithm: sha256WithRSAEncryption
        Issuer: C=DE, ST=Hamburg, O=haw-hamburg, OU=SVS, CN=Sub-CA-24
        Validity
            Not Before: Jun 23 15:00:36 2022 GMT
            Not After : Jun 20 15:00:36 2023 GMT
        Subject: C=DE, ST=Hamburg, O=haw-hamburg, OU=SVS, CN=svs24.ful.informatik.haw-hamburg.de
        Subject Public Key Info:
            Public Key Algorithm: rsaEncryption
                RSA Public-Key: (2048 bit)
                Modulus:
                    00:d6:86:17:28:8b:79:fe:95:ee:a3:41:50:89:59:
                    ea:3a:6c:bc:74:8e:4c:26:0c:e0:f7:51:95:e6:5e:
                    9f:62:2c:2d:52:e1:5c:d3:5d:ef:71:cc:0d:cd:85:
                    96:ed:48:65:1a:e2:6d:0c:e4:3d:34:0c:cd:3c:84:
                    3f:bc:fa:be:bc:26:3d:bd:46:fc:fd:e4:dc:17:20:
                    20:93:dd:9a:f6:5f:28:13:fb:d0:90:c5:d5:bf:38:
                    4f:51:ac:41:ef:56:f1:2f:d0:59:65:e2:5b:9b:4d:
                    f7:cf:37:12:32:0d:81:4e:21:3f:e9:92:49:41:3c:
                    9d:29:db:de:ec:6c:ef:b7:92:ac:ad:44:7a:a6:3b:
                    c6:96:c8:b3:f2:f8:68:41:c0:ce:51:d8:2d:26:5e:
                    bd:31:bf:44:6b:d2:4f:7c:9e:6c:63:a3:e4:6c:17:
                    84:ad:b7:25:da:f1:ca:9b:98:6f:fe:41:48:02:30:
                    a8:88:83:eb:78:0f:86:03:10:4f:29:0f:a5:68:0c:
                    93:80:c7:9f:88:a7:8a:7c:ea:7e:fa:ef:12:c3:65:
                    d7:f7:48:93:87:79:e2:7c:3d:4f:85:a2:da:35:06:
                    3e:c6:3b:c0:25:83:a8:6c:c5:e1:84:64:68:0f:a8:
                    a4:b9:4b:1d:bf:0f:e4:5a:32:c6:83:13:64:a9:94:
                    7e:41
                Exponent: 65537 (0x10001)
        X509v3 extensions:
            X509v3 Key Usage: critical
                Digital Signature, Key Encipherment
            X509v3 Basic Constraints: 
                CA:FALSE
            X509v3 Extended Key Usage: 
                TLS Web Server Authentication, TLS Web Client Authentication
            X509v3 Subject Key Identifier: 
                C2:02:BE:1B:52:33:1B:5B:40:04:51:3D:DA:37:57:3A:7D:2D:3D:C3
            X509v3 Authority Key Identifier: 
                keyid:37:91:4B:1B:62:D3:E6:12:22:10:EA:CE:38:65:B3:51:86:ED:8B:AC

            X509v3 Subject Alternative Name: 
                DNS:svs24.ful.informatik.haw-hamburg.de, DNS:www.svs24.ful.informatik.haw-hamburg.de
    Signature Algorithm: sha256WithRSAEncryption
         a3:3c:e9:2f:e0:94:13:5b:3c:44:08:59:1a:17:93:a5:78:0d:
         2c:8a:11:e3:71:ff:7a:62:81:c6:e7:6e:0e:0e:8a:ac:8f:78:
         c0:fe:33:33:27:5f:ef:29:b3:de:c6:63:27:1f:4c:19:57:1b:
         85:6e:f4:25:a9:7c:07:3d:1c:1e:d7:79:bc:76:01:58:c3:cd:
         98:21:47:73:61:d6:de:11:d9:08:16:f4:24:25:ac:f0:27:75:
         15:13:a2:8b:00:13:7b:6e:f6:12:a5:3d:cb:6c:c2:3b:bd:ce:
         19:b6:10:cd:fb:2a:8b:dc:07:60:02:09:76:9f:a4:10:1c:61:
         9e:a2:ba:f3:f8:0a:cd:bf:f5:e0:27:df:91:76:f6:ad:dd:ed:
         5e:ad:fd:00:25:48:8e:7b:e3:a9:29:69:dd:17:c9:8f:1e:65:
         a3:b4:46:4a:89:83:96:f5:f5:e3:fc:df:10:8e:bf:35:ed:ef:
         2d:95:4b:ef:29:5c:02:6b:0d:02:6d:48:48:4e:48:44:0e:7f:
         8e:78:8a:c3:c6:e7:d3:cc:d7:00:28:02:92:16:ff:1a:48:b4:
         82:9f:4f:a3:0d:54:5f:a8:48:81:5c:c7:1a:83:42:ee:46:73:
         07:4d:2f:85:72:5d:dd:37:c3:eb:fb:ed:8a:f8:a7:b6:fa:3a:
         1a:fc:0d:b0
-----BEGIN CERTIFICATE-----
MIIEGjCCAwKgAwIBAgIBATANBgkqhkiG9w0BAQsFADBXMQswCQYDVQQGEwJERTEQ
MA4GA1UECBMHSGFtYnVyZzEUMBIGA1UEChMLaGF3LWhhbWJ1cmcxDDAKBgNVBAsT
A1NWUzESMBAGA1UEAxMJU3ViLUNBLTI0MB4XDTIyMDYyMzE1MDAzNloXDTIzMDYy
MDE1MDAzNlowcTELMAkGA1UEBhMCREUxEDAOBgNVBAgTB0hhbWJ1cmcxFDASBgNV
BAoTC2hhdy1oYW1idXJnMQwwCgYDVQQLEwNTVlMxLDAqBgNVBAMTI3N2czI0LmZ1
bC5pbmZvcm1hdGlrLmhhdy1oYW1idXJnLmRlMIIBIjANBgkqhkiG9w0BAQEFAAOC
AQ8AMIIBCgKCAQEA1oYXKIt5/pXuo0FQiVnqOmy8dI5MJgzg91GV5l6fYiwtUuFc
013vccwNzYWW7UhlGuJtDOQ9NAzNPIQ/vPq+vCY9vUb8/eTcFyAgk92a9l8oE/vQ
kMXVvzhPUaxB71bxL9BZZeJbm033zzcSMg2BTiE/6ZJJQTydKdve7Gzvt5KsrUR6
pjvGlsiz8vhoQcDOUdgtJl69Mb9Ea9JPfJ5sY6PkbBeErbcl2vHKm5hv/kFIAjCo
iIPreA+GAxBPKQ+laAyTgMefiKeKfOp++u8Sw2XX90iTh3nifD1PhaLaNQY+xjvA
JYOobMXhhGRoD6ikuUsdvw/kWjLGgxNkqZR+QQIDAQABo4HWMIHTMA4GA1UdDwEB
/wQEAwIFoDAJBgNVHRMEAjAAMB0GA1UdJQQWMBQGCCsGAQUFBwMBBggrBgEFBQcD
AjAdBgNVHQ4EFgQUwgK+G1IzG1tABFE92jdXOn0tPcMwHwYDVR0jBBgwFoAUN5FL
G2LT5hIiEOrOOGWzUYbti6wwVwYDVR0RBFAwToIjc3ZzMjQuZnVsLmluZm9ybWF0
aWsuaGF3LWhhbWJ1cmcuZGWCJ3d3dy5zdnMyNC5mdWwuaW5mb3JtYXRpay5oYXct
aGFtYnVyZy5kZTANBgkqhkiG9w0BAQsFAAOCAQEAozzpL+CUE1s8RAhZGheTpXgN
LIoR43H/emKBxuduDg6KrI94wP4zMydf7ymz3sZjJx9MGVcbhW70Jal8Bz0cHtd5
vHYBWMPNmCFHc2HW3hHZCBb0JCWs8Cd1FROiiwATe272EqU9y2zCO73OGbYQzfsq
i9wHYAIJdp+kEBxhnqK68/gKzb/14CffkXb2rd3tXq39ACVIjnvjqSlp3RfJjx5l
o7RGSomDlvX14/zfEI6/Ne3vLZVL7ylcAmsNAm1ISE5IRA5/jniKw8bn08zXACgC
khb/Gki0gp9Pow1UX6hIgVzHGoNC7kZzB00vhXJd3TfD6/vtivintvo6GvwNsA==
-----END CERTIFICATE-----
