Certificate:
    Data:
        Version: 3 (0x2)
        Serial Number: 1 (0x1)
        Signature Algorithm: sha256WithRSAEncryption
        Issuer: C=DE, ST=Hamburg, O=haw-hamburg, OU=SVS, CN=Sub-CA-24
        Validity
            Not Before: Jun 23 15:42:51 2022 GMT
            Not After : Jun 20 15:42:51 2023 GMT
        Subject: C=DE, ST=Hamburg, O=haw-hamburg, OU=SVS, CN=svs24.ful.informatik.haw-hamburg.de
        Subject Public Key Info:
            Public Key Algorithm: rsaEncryption
                RSA Public-Key: (2048 bit)
                Modulus:
                    00:ba:ff:63:21:6e:46:d7:34:1e:f4:c5:2c:cb:68:
                    b2:f5:0b:90:8c:13:5f:51:f2:64:39:73:3e:53:06:
                    d5:91:84:b4:96:09:89:9a:19:4e:23:88:c0:57:21:
                    25:8d:4e:12:a7:62:a8:ee:77:9b:23:2d:04:f3:52:
                    79:a8:05:04:1b:85:ac:f3:3d:47:02:6f:c6:0a:90:
                    e0:75:fe:45:06:1d:14:97:6a:6b:26:17:54:ad:1d:
                    4a:f1:b9:80:d4:88:20:8e:b0:26:3f:e9:f9:43:c0:
                    e5:ab:49:a6:5f:8d:a6:a5:d3:87:38:01:bc:8a:5f:
                    81:d3:3c:d1:d2:4f:5e:7f:a8:f2:67:1e:12:39:8d:
                    07:1a:72:e3:a0:1d:f4:14:e4:7d:92:ef:37:d8:85:
                    af:66:f1:98:52:8f:5e:3c:9c:f7:4c:4d:6c:b6:0f:
                    cf:8b:97:0f:d0:f0:d6:30:3a:48:1b:47:70:22:c5:
                    3b:94:ad:cb:68:47:aa:a9:58:a0:38:58:5a:1c:00:
                    07:49:ae:79:31:a8:a6:d9:79:33:d0:83:33:1c:6f:
                    a8:c1:34:d5:1d:21:60:9b:fe:7b:3c:5e:dd:d0:75:
                    72:d4:05:7a:01:91:e1:80:4e:8c:09:fe:d4:fa:88:
                    a3:3c:3d:b4:31:d8:05:14:71:be:1e:26:06:cd:be:
                    11:9f
                Exponent: 65537 (0x10001)
        X509v3 extensions:
            X509v3 Key Usage: critical
                Digital Signature, Key Encipherment
            X509v3 Basic Constraints: 
                CA:FALSE
            X509v3 Extended Key Usage: 
                TLS Web Server Authentication, TLS Web Client Authentication
            X509v3 Subject Key Identifier: 
                49:29:F7:74:DC:07:13:05:92:1B:BF:F7:E8:1E:E4:47:14:8F:14:15
            X509v3 Authority Key Identifier: 
                keyid:55:00:B0:B3:48:DF:D5:3A:09:05:1D:49:63:2D:AD:24:E5:6C:C1:15

            X509v3 Subject Alternative Name: 
                DNS:svs24.ful.informatik.haw-hamburg.de, DNS:www.svs24.ful.informatik.haw-hamburg.de
    Signature Algorithm: sha256WithRSAEncryption
         1c:20:7c:60:cd:6b:1f:93:09:21:58:a3:e2:08:b3:c9:fa:3a:
         89:db:dc:41:6a:70:73:de:30:76:c1:bc:79:4c:d6:64:89:93:
         b8:15:fb:81:c5:4b:52:a1:a7:3b:f2:47:dc:54:41:df:44:9d:
         a2:dc:f7:b3:e7:1c:ee:8e:e3:e3:60:3c:e5:0f:f8:44:32:08:
         a2:83:ce:2e:36:b0:21:ce:d0:80:a1:d6:e8:25:b5:e8:6e:3a:
         05:8b:25:83:83:95:dd:73:59:a3:36:99:dd:80:04:af:83:05:
         b5:5e:34:bb:5c:38:60:8a:85:f6:c7:c7:ed:ed:28:90:77:70:
         bd:b3:1d:89:00:67:f1:78:43:b8:9a:7f:50:4f:4b:a4:3a:d4:
         79:24:53:7b:72:04:a3:b3:b2:02:d0:c1:28:11:5b:7a:04:fd:
         73:f1:a0:e2:70:7d:4c:9b:f6:d4:c7:fe:3c:d2:c5:f6:22:32:
         a5:de:42:ab:55:88:b0:89:e1:e6:b4:4a:ed:98:f6:c0:fd:7a:
         b9:03:96:a2:86:00:55:36:df:4d:e7:25:1f:35:dc:88:4a:4f:
         14:73:04:5a:22:5b:84:ea:b4:1f:f6:0a:1e:d7:16:a5:04:51:
         45:12:d1:b1:1a:30:20:ff:7f:02:d6:20:d3:52:01:d7:89:d3:
         bc:15:e5:0f
-----BEGIN CERTIFICATE-----
MIIEGjCCAwKgAwIBAgIBATANBgkqhkiG9w0BAQsFADBXMQswCQYDVQQGEwJERTEQ
MA4GA1UECBMHSGFtYnVyZzEUMBIGA1UEChMLaGF3LWhhbWJ1cmcxDDAKBgNVBAsT
A1NWUzESMBAGA1UEAxMJU3ViLUNBLTI0MB4XDTIyMDYyMzE1NDI1MVoXDTIzMDYy
MDE1NDI1MVowcTELMAkGA1UEBhMCREUxEDAOBgNVBAgTB0hhbWJ1cmcxFDASBgNV
BAoTC2hhdy1oYW1idXJnMQwwCgYDVQQLEwNTVlMxLDAqBgNVBAMTI3N2czI0LmZ1
bC5pbmZvcm1hdGlrLmhhdy1oYW1idXJnLmRlMIIBIjANBgkqhkiG9w0BAQEFAAOC
AQ8AMIIBCgKCAQEAuv9jIW5G1zQe9MUsy2iy9QuQjBNfUfJkOXM+UwbVkYS0lgmJ
mhlOI4jAVyEljU4Sp2Ko7nebIy0E81J5qAUEG4Ws8z1HAm/GCpDgdf5FBh0Ul2pr
JhdUrR1K8bmA1IggjrAmP+n5Q8Dlq0mmX42mpdOHOAG8il+B0zzR0k9ef6jyZx4S
OY0HGnLjoB30FOR9ku832IWvZvGYUo9ePJz3TE1stg/Pi5cP0PDWMDpIG0dwIsU7
lK3LaEeqqVigOFhaHAAHSa55Maim2Xkz0IMzHG+owTTVHSFgm/57PF7d0HVy1AV6
AZHhgE6MCf7U+oijPD20MdgFFHG+HiYGzb4RnwIDAQABo4HWMIHTMA4GA1UdDwEB
/wQEAwIFoDAJBgNVHRMEAjAAMB0GA1UdJQQWMBQGCCsGAQUFBwMBBggrBgEFBQcD
AjAdBgNVHQ4EFgQUSSn3dNwHEwWSG7/36B7kRxSPFBUwHwYDVR0jBBgwFoAUVQCw
s0jf1ToJBR1JYy2tJOVswRUwVwYDVR0RBFAwToIjc3ZzMjQuZnVsLmluZm9ybWF0
aWsuaGF3LWhhbWJ1cmcuZGWCJ3d3dy5zdnMyNC5mdWwuaW5mb3JtYXRpay5oYXct
aGFtYnVyZy5kZTANBgkqhkiG9w0BAQsFAAOCAQEAHCB8YM1rH5MJIVij4gizyfo6
idvcQWpwc94wdsG8eUzWZImTuBX7gcVLUqGnO/JH3FRB30Sdotz3s+cc7o7j42A8
5Q/4RDIIooPOLjawIc7QgKHW6CW16G46BYslg4OV3XNZozaZ3YAEr4MFtV40u1w4
YIqF9sfH7e0okHdwvbMdiQBn8XhDuJp/UE9LpDrUeSRTe3IEo7OyAtDBKBFbegT9
c/Gg4nB9TJv21Mf+PNLF9iIypd5Cq1WIsInh5rRK7Zj2wP16uQOWooYAVTbfTecl
HzXciEpPFHMEWiJbhOq0H/YKHtcWpQRRRRLRsRowIP9/AtYg01IB14nTvBXlDw==
-----END CERTIFICATE-----
