Certificate:
    Data:
        Version: 3 (0x2)
        Serial Number: 1 (0x1)
        Signature Algorithm: sha256WithRSAEncryption
        Issuer: C=DE, ST=Hamburg, O=haw-hamburg, CN=SVS Root CA
        Validity
            Not Before: Jun 23 16:54:58 2022 GMT
            Not After : Dec 31 23:59:59 2030 GMT
        Subject: C=DE, ST=Hamburg, O=haw-hamburg, CN=SVS Root CA
        Subject Public Key Info:
            Public Key Algorithm: rsaEncryption
                RSA Public-Key: (4096 bit)
                Modulus:
                    00:a6:8f:1f:fc:ba:6b:ad:12:fc:8c:db:98:e8:41:
                    38:c5:56:50:8e:db:e8:f2:e2:77:68:59:68:60:70:
                    ea:7d:e9:00:bf:3c:38:fb:7f:ec:54:03:f1:b6:b2:
                    04:75:9e:55:7d:1e:56:64:66:ba:5d:45:70:de:3b:
                    7e:ef:b4:aa:cd:1a:aa:51:d1:f8:5c:1f:45:96:ed:
                    56:8d:ec:4b:97:8c:b4:04:2c:66:02:be:98:8c:69:
                    6b:19:59:c8:9c:d1:27:41:44:76:62:49:a8:fc:5f:
                    13:43:05:a3:d4:1c:bb:e5:75:05:85:eb:71:3f:bf:
                    28:7b:b3:ec:3a:4a:54:3e:f0:a2:ec:ba:fd:fd:be:
                    37:66:64:a6:2e:59:ce:42:dd:92:26:94:d6:ee:5b:
                    8f:0a:3d:20:7c:88:ea:38:71:5b:09:65:91:db:ec:
                    2b:8d:49:f2:d8:cf:01:35:8b:5e:2d:19:b3:a9:93:
                    a6:34:5a:09:60:b7:0c:ab:85:5d:6f:92:0e:b8:89:
                    3b:60:e3:e2:16:f4:5e:0e:58:81:f1:c6:63:49:f6:
                    b6:6b:1b:53:e7:8b:55:f7:79:a3:65:3b:84:99:94:
                    46:88:06:64:6b:28:26:5c:e4:b5:82:98:02:4d:bd:
                    f3:96:b3:d9:de:90:2f:1a:ed:73:5a:c5:c8:3d:75:
                    f0:cd:e6:51:a2:a7:e0:c8:00:d6:ce:69:ee:c9:9d:
                    8e:97:21:23:2c:d0:64:b0:51:ad:04:8f:2b:ca:d4:
                    cb:95:cf:ae:c0:91:0f:89:67:c3:32:99:b3:de:24:
                    c3:80:4f:72:15:20:00:57:10:6f:87:9c:57:7c:22:
                    cb:44:01:55:e0:60:dc:32:02:31:1b:4d:d3:55:cf:
                    c4:75:84:4d:e7:fa:06:60:48:72:ed:c1:f2:aa:5f:
                    7f:b2:7f:87:26:a4:fb:a9:c1:1c:08:f2:05:0f:80:
                    0f:20:32:41:63:90:2d:0d:bd:50:a9:f4:cd:1b:7a:
                    18:da:7e:9d:c1:4b:af:a2:f4:c7:04:6e:5d:43:63:
                    09:9e:36:1c:01:a1:b3:67:ea:0b:bf:35:b6:17:62:
                    3d:10:3b:2b:e7:ff:a4:95:db:4e:a3:3e:a9:c8:ea:
                    8a:85:d7:33:d5:d1:99:3e:0f:3a:78:43:3b:cc:5f:
                    58:3d:55:ea:d5:93:91:ae:58:7e:7f:8d:fb:3b:4e:
                    41:5d:72:48:8a:94:d0:12:3f:07:87:f6:cc:bc:cb:
                    74:02:75:1a:b8:58:73:80:a1:8e:59:df:ba:65:0a:
                    02:66:da:c5:5a:6d:36:57:6d:5f:73:89:ba:50:34:
                    d2:26:a3:4d:e2:7f:5b:44:d8:13:26:1c:0a:c4:67:
                    d7:e4:93
                Exponent: 65537 (0x10001)
        X509v3 extensions:
            X509v3 Key Usage: critical
                Certificate Sign, CRL Sign
            X509v3 Basic Constraints: critical
                CA:TRUE
            X509v3 Subject Key Identifier: 
                61:3B:F3:CB:D2:FB:F1:54:0A:B7:01:23:A7:BD:CC:01:AB:2E:1C:FD
            X509v3 Authority Key Identifier: 
                keyid:61:3B:F3:CB:D2:FB:F1:54:0A:B7:01:23:A7:BD:CC:01:AB:2E:1C:FD

    Signature Algorithm: sha256WithRSAEncryption
         02:30:b7:41:b9:81:5a:b2:f3:5d:ef:46:50:e0:e9:8e:8f:af:
         ff:52:db:0c:69:0e:fa:d6:57:bc:7e:9e:f2:02:57:6e:03:83:
         33:ee:73:f4:61:b3:c7:4d:e6:60:d3:9a:3e:dc:5d:33:7d:93:
         73:42:68:e6:2f:f7:c9:c7:38:71:80:46:50:8b:11:04:3d:1e:
         2e:d0:ba:d6:82:c8:5d:8d:de:e8:97:04:54:93:a4:76:6f:4b:
         fa:59:0b:39:e2:72:46:a7:45:f4:36:a9:0d:c4:3c:d1:d5:09:
         8c:4d:dd:7c:9c:96:e7:37:4a:6c:ea:f5:2e:f9:15:e7:b7:46:
         14:34:26:1d:f4:71:c9:a4:d4:20:cf:65:0a:f5:fe:0e:45:83:
         53:b8:89:7b:69:f7:d5:e1:75:cf:b6:31:8e:67:01:08:cb:7a:
         0f:e2:ef:57:73:de:2d:43:1d:09:5d:b5:b1:b8:6e:47:34:cd:
         d1:a6:a8:d7:ee:67:7d:4f:ff:22:84:87:34:ed:fe:92:e3:9a:
         0e:6b:d6:8a:68:c0:e3:77:01:50:59:30:47:99:fb:b3:c3:b2:
         97:ed:ed:83:e2:67:d3:c9:34:7f:2b:f7:2a:d8:fd:db:10:25:
         23:76:66:b5:60:67:bc:b9:15:26:48:84:b6:bc:c6:84:24:a5:
         61:0f:5b:be:ca:5f:f3:00:45:e3:85:a0:10:2f:83:82:a7:a4:
         81:a6:e0:59:8d:95:ce:80:75:1a:47:81:3f:cf:9c:d2:1f:c2:
         13:ad:b6:51:e0:c5:b6:89:18:c1:6a:af:cb:63:2e:70:b3:bb:
         98:5a:19:ca:ae:be:5e:e0:99:d8:f9:c5:22:ee:4d:31:fc:d9:
         72:8d:88:10:aa:21:ca:25:f5:ac:ad:c4:e2:98:d9:0a:dd:0f:
         b2:58:60:41:4f:22:6b:5b:d7:f4:d0:39:1f:df:33:3d:5d:b8:
         0c:f8:8b:5f:8c:b0:dd:e9:fd:2a:ac:30:7e:dd:62:97:aa:cb:
         57:59:6e:ca:a7:dc:b3:32:44:80:6a:d7:c1:ce:ae:a2:13:9b:
         89:e8:02:71:3f:57:e6:12:71:c7:aa:43:77:b4:71:41:b2:fe:
         f5:fd:cb:fd:33:cf:81:14:6d:b0:46:3f:cb:73:aa:88:82:7d:
         7c:c8:5e:6c:1d:d1:e7:0e:2a:c5:9a:4d:d1:b1:e2:37:47:56:
         a7:94:a9:f8:ac:75:7d:f7:80:df:ff:0d:cb:9f:4e:04:f9:74:
         df:9c:f8:23:e2:a6:f2:6a:48:8e:66:d3:e8:24:41:4c:11:bb:
         75:57:aa:79:0d:de:d3:c0:bb:d5:87:68:58:c5:0d:41:d3:0a:
         ac:ad:15:6d:13:fe:f0:76
-----BEGIN CERTIFICATE-----
MIIFdDCCA1ygAwIBAgIBATANBgkqhkiG9w0BAQsFADBLMQswCQYDVQQGEwJERTEQ
MA4GA1UECBMHSGFtYnVyZzEUMBIGA1UEChMLaGF3LWhhbWJ1cmcxFDASBgNVBAMT
C1NWUyBSb290IENBMB4XDTIyMDYyMzE2NTQ1OFoXDTMwMTIzMTIzNTk1OVowSzEL
MAkGA1UEBhMCREUxEDAOBgNVBAgTB0hhbWJ1cmcxFDASBgNVBAoTC2hhdy1oYW1i
dXJnMRQwEgYDVQQDEwtTVlMgUm9vdCBDQTCCAiIwDQYJKoZIhvcNAQEBBQADggIP
ADCCAgoCggIBAKaPH/y6a60S/IzbmOhBOMVWUI7b6PLid2hZaGBw6n3pAL88OPt/
7FQD8bayBHWeVX0eVmRmul1FcN47fu+0qs0aqlHR+FwfRZbtVo3sS5eMtAQsZgK+
mIxpaxlZyJzRJ0FEdmJJqPxfE0MFo9Qcu+V1BYXrcT+/KHuz7DpKVD7wouy6/f2+
N2Zkpi5ZzkLdkiaU1u5bjwo9IHyI6jhxWwllkdvsK41J8tjPATWLXi0Zs6mTpjRa
CWC3DKuFXW+SDriJO2Dj4hb0Xg5YgfHGY0n2tmsbU+eLVfd5o2U7hJmURogGZGso
JlzktYKYAk2985az2d6QLxrtc1rFyD118M3mUaKn4MgA1s5p7smdjpchIyzQZLBR
rQSPK8rUy5XPrsCRD4lnwzKZs94kw4BPchUgAFcQb4ecV3wiy0QBVeBg3DICMRtN
01XPxHWETef6BmBIcu3B8qpff7J/hyak+6nBHAjyBQ+ADyAyQWOQLQ29UKn0zRt6
GNp+ncFLr6L0xwRuXUNjCZ42HAGhs2fqC781thdiPRA7K+f/pJXbTqM+qcjqioXX
M9XRmT4POnhDO8xfWD1V6tWTka5Yfn+N+ztOQV1ySIqU0BI/B4f2zLzLdAJ1GrhY
c4ChjlnfumUKAmbaxVptNldtX3OJulA00iajTeJ/W0TYEyYcCsRn1+STAgMBAAGj
YzBhMA4GA1UdDwEB/wQEAwIBBjAPBgNVHRMBAf8EBTADAQH/MB0GA1UdDgQWBBRh
O/PL0vvxVAq3ASOnvcwBqy4c/TAfBgNVHSMEGDAWgBRhO/PL0vvxVAq3ASOnvcwB
qy4c/TANBgkqhkiG9w0BAQsFAAOCAgEAAjC3QbmBWrLzXe9GUODpjo+v/1LbDGkO
+tZXvH6e8gJXbgODM+5z9GGzx03mYNOaPtxdM32Tc0Jo5i/3ycc4cYBGUIsRBD0e
LtC61oLIXY3e6JcEVJOkdm9L+lkLOeJyRqdF9DapDcQ80dUJjE3dfJyW5zdKbOr1
LvkV57dGFDQmHfRxyaTUIM9lCvX+DkWDU7iJe2n31eF1z7YxjmcBCMt6D+LvV3Pe
LUMdCV21sbhuRzTN0aao1+5nfU//IoSHNO3+kuOaDmvWimjA43cBUFkwR5n7s8Oy
l+3tg+Jn08k0fyv3Ktj92xAlI3ZmtWBnvLkVJkiEtrzGhCSlYQ9bvspf8wBF44Wg
EC+DgqekgabgWY2VzoB1GkeBP8+c0h/CE622UeDFtokYwWqvy2MucLO7mFoZyq6+
XuCZ2PnFIu5NMfzZco2IEKohyiX1rK3E4pjZCt0PslhgQU8ia1vX9NA5H98zPV24
DPiLX4yw3en9Kqwwft1il6rLV1luyqfcszJEgGrXwc6uohObiegCcT9X5hJxx6pD
d7RxQbL+9f3L/TPPgRRtsEY/y3OqiIJ9fMhebB3R5w4qxZpN0bHiN0dWp5Sp+Kx1
ffeA3/8Ny59OBPl035z4I+Km8mpIjmbT6CRBTBG7dVeqeQ3e08C71YdoWMUNQdMK
rK0VbRP+8HY=
-----END CERTIFICATE-----
