Certificate:
    Data:
        Version: 3 (0x2)
        Serial Number: 1 (0x1)
        Signature Algorithm: sha256WithRSAEncryption
        Issuer: C=DE, ST=Hamburg, O=haw-hamburg, CN=SVS Root CA
        Validity
            Not Before: May 30 18:01:36 2022 GMT
            Not After : Dec 31 23:59:59 2030 GMT
        Subject: C=DE, ST=Hamburg, O=haw-hamburg, CN=SVS Root CA
        Subject Public Key Info:
            Public Key Algorithm: rsaEncryption
                RSA Public-Key: (2048 bit)
                Modulus:
                    00:9b:e1:ee:93:7f:de:4c:65:20:75:e5:81:e6:41:
                    84:cd:0d:f2:db:2b:d3:f7:96:33:56:68:3e:43:50:
                    26:29:9d:74:cd:68:d7:8f:5b:15:44:c0:b3:5d:5f:
                    8c:e3:15:65:5d:10:99:53:ca:3f:2b:7f:b1:66:bb:
                    61:b2:a5:e5:a5:73:84:c4:9a:c8:1c:b3:ac:6a:14:
                    1f:27:19:e2:d1:79:e3:9b:9b:72:b9:56:19:52:55:
                    b0:ce:0d:f0:d7:c7:70:72:75:22:eb:37:b2:09:54:
                    a1:b7:ce:78:61:3e:a5:df:bf:d2:b5:e4:e2:a7:48:
                    c0:ff:33:02:23:50:d0:3c:31:60:99:9e:ca:52:3d:
                    62:f1:94:bb:32:d8:04:28:a6:42:0d:c7:2b:0d:f8:
                    27:68:98:8d:94:eb:9c:e4:1f:f3:a7:cc:77:64:18:
                    a6:7d:03:a3:ee:24:d3:87:3b:48:63:b1:a9:bd:84:
                    c2:d9:3d:ce:cb:b4:d2:3e:c1:be:0b:8f:c9:02:aa:
                    10:16:71:30:ac:01:87:f6:24:32:ee:67:64:dd:be:
                    f6:70:e9:ab:51:7e:d3:48:49:72:97:48:6a:2d:df:
                    c4:53:6e:bd:30:97:f2:ce:b8:a9:57:f9:05:93:f8:
                    84:cf:e5:d1:2d:d8:80:54:d6:6a:1e:59:fa:12:46:
                    3c:61
                Exponent: 65537 (0x10001)
        X509v3 extensions:
            X509v3 Key Usage: critical
                Certificate Sign, CRL Sign
            X509v3 Basic Constraints: critical
                CA:TRUE
            X509v3 Subject Key Identifier: 
                9E:75:24:8C:E7:3F:A5:B0:82:23:70:F1:47:BB:9C:53:06:E9:81:15
            X509v3 Authority Key Identifier: 
                keyid:9E:75:24:8C:E7:3F:A5:B0:82:23:70:F1:47:BB:9C:53:06:E9:81:15

    Signature Algorithm: sha256WithRSAEncryption
         42:4a:ea:eb:5b:7a:50:5c:65:16:19:62:c5:32:66:a3:c4:c8:
         f3:11:7e:7c:1e:46:9f:5a:0c:04:3e:b5:09:92:da:a0:7d:53:
         66:18:39:1a:50:df:55:fc:72:9b:c1:4a:fd:b3:bc:09:20:74:
         12:c3:ba:05:78:3f:4d:e1:f6:7c:32:b0:65:ac:d5:97:2f:19:
         54:86:92:36:64:ee:d6:4b:e9:a8:84:38:67:67:53:13:70:d0:
         60:61:37:32:80:78:75:e7:7a:05:e2:2b:2e:f1:d6:50:8d:73:
         ed:a9:1d:b0:4e:b9:53:c9:17:5b:87:d5:77:47:10:e7:c5:1b:
         e1:b7:fb:02:bf:a9:ab:bf:94:fc:af:d6:81:2c:c1:69:44:28:
         0f:76:02:4c:53:9e:7c:68:4e:43:27:74:4f:33:5e:01:9d:e0:
         60:49:3e:fe:4d:37:12:96:bb:c0:11:80:6f:19:09:36:9c:4d:
         52:64:35:25:86:4f:f1:a8:cd:c3:33:f3:6e:5b:d5:11:35:38:
         64:71:4e:51:9c:ad:eb:c8:97:9d:ed:b5:5e:14:8b:09:ff:5a:
         aa:65:00:e8:0b:4c:72:c1:e4:0b:4c:dd:87:af:8d:1f:a1:b0:
         26:26:78:79:02:54:ee:21:c3:fd:81:76:c9:4d:34:a7:cb:a7:
         38:73:c0:32
-----BEGIN CERTIFICATE-----
MIIDdDCCAlygAwIBAgIBATANBgkqhkiG9w0BAQsFADBLMQswCQYDVQQGEwJERTEQ
MA4GA1UECBMHSGFtYnVyZzEUMBIGA1UEChMLaGF3LWhhbWJ1cmcxFDASBgNVBAMT
C1NWUyBSb290IENBMB4XDTIyMDUzMDE4MDEzNloXDTMwMTIzMTIzNTk1OVowSzEL
MAkGA1UEBhMCREUxEDAOBgNVBAgTB0hhbWJ1cmcxFDASBgNVBAoTC2hhdy1oYW1i
dXJnMRQwEgYDVQQDEwtTVlMgUm9vdCBDQTCCASIwDQYJKoZIhvcNAQEBBQADggEP
ADCCAQoCggEBAJvh7pN/3kxlIHXlgeZBhM0N8tsr0/eWM1ZoPkNQJimddM1o149b
FUTAs11fjOMVZV0QmVPKPyt/sWa7YbKl5aVzhMSayByzrGoUHycZ4tF545ubcrlW
GVJVsM4N8NfHcHJ1Ius3sglUobfOeGE+pd+/0rXk4qdIwP8zAiNQ0DwxYJmeylI9
YvGUuzLYBCimQg3HKw34J2iYjZTrnOQf86fMd2QYpn0Do+4k04c7SGOxqb2Ewtk9
zsu00j7BvguPyQKqEBZxMKwBh/YkMu5nZN2+9nDpq1F+00hJcpdIai3fxFNuvTCX
8s64qVf5BZP4hM/l0S3YgFTWah5Z+hJGPGECAwEAAaNjMGEwDgYDVR0PAQH/BAQD
AgEGMA8GA1UdEwEB/wQFMAMBAf8wHQYDVR0OBBYEFJ51JIznP6WwgiNw8Ue7nFMG
6YEVMB8GA1UdIwQYMBaAFJ51JIznP6WwgiNw8Ue7nFMG6YEVMA0GCSqGSIb3DQEB
CwUAA4IBAQBCSurrW3pQXGUWGWLFMmajxMjzEX58HkafWgwEPrUJktqgfVNmGDka
UN9V/HKbwUr9s7wJIHQSw7oFeD9N4fZ8MrBlrNWXLxlUhpI2ZO7WS+mohDhnZ1MT
cNBgYTcygHh153oF4isu8dZQjXPtqR2wTrlTyRdbh9V3RxDnxRvht/sCv6mrv5T8
r9aBLMFpRCgPdgJMU558aE5DJ3RPM14BneBgST7+TTcSlrvAEYBvGQk2nE1SZDUl
hk/xqM3DM/NuW9URNThkcU5RnK3ryJed7bVeFIsJ/1qqZQDoC0xyweQLTN2Hr40f
obAmJnh5AlTuIcP9gXbJTTSny6c4c8Ay
-----END CERTIFICATE-----
