Certificate:
    Data:
        Version: 3 (0x2)
        Serial Number: 2 (0x2)
        Signature Algorithm: sha256WithRSAEncryption
        Issuer: C=DE, ST=Hamburg, O=haw-hamburg, CN=SVS Root CA
        Validity
            Not Before: Jun 29 21:41:08 2022 GMT
            Not After : Jun 29 21:41:08 2023 GMT
        Subject: C=DE, ST=Hamburg, O=haw-hamburg, OU=SVS, CN=Sub-CA-24
        Subject Public Key Info:
            Public Key Algorithm: rsaEncryption
                RSA Public-Key: (4096 bit)
                Modulus:
                    00:bb:de:99:59:94:88:ce:ba:d9:64:0a:32:73:71:
                    7a:03:e6:bb:67:39:e6:40:6a:0e:2e:74:eb:59:a4:
                    60:9c:05:20:0a:99:98:3b:74:42:9a:28:7f:82:e5:
                    28:03:a3:07:f1:c2:81:fe:3b:0e:f8:a0:a3:07:5e:
                    d7:a4:68:79:94:87:fa:86:a8:d6:96:a7:a9:4d:59:
                    14:56:d3:ba:2c:37:91:fb:b7:c5:ab:f8:ca:72:c9:
                    b0:ff:f6:54:a0:74:c6:c6:e4:e2:ef:31:8f:95:a8:
                    16:01:d5:ba:fa:94:d8:ed:ed:51:0f:b5:00:0b:49:
                    fd:23:24:3a:79:07:25:72:c3:07:b6:3a:37:35:bc:
                    ce:a7:af:c8:9f:7d:68:af:64:d0:d8:ea:ec:87:57:
                    1f:51:15:e2:dd:b4:69:c0:3f:87:d9:39:9d:3e:aa:
                    5b:ae:cc:8f:c8:d0:8f:84:21:81:98:70:69:0c:5b:
                    a2:ff:f2:13:0a:26:fe:f0:f8:ad:15:7e:8c:29:ae:
                    73:b8:ea:f9:36:c1:d1:da:3f:64:9b:a5:97:8e:6d:
                    46:9f:0f:20:51:72:ee:fe:b8:4a:43:e0:96:f9:53:
                    ca:19:d5:0a:78:48:7c:24:1a:21:b0:09:e1:6c:39:
                    54:ef:c3:94:b2:ab:de:ff:4f:92:74:1f:4a:22:3c:
                    92:40:2c:02:a3:1f:8a:43:59:a9:3d:72:91:f9:17:
                    40:c3:8d:5a:3d:b6:7a:0a:05:9d:46:40:b0:dc:d5:
                    3a:0b:35:dd:14:d2:d0:e0:a3:ea:14:01:03:39:f4:
                    d3:b9:03:fc:e2:89:52:2e:3b:46:22:55:95:4d:c3:
                    9d:6a:e5:a8:4e:0c:74:20:75:96:d7:20:75:da:eb:
                    d4:ae:a6:55:b2:aa:ed:18:24:0d:99:9d:c0:c0:fa:
                    f9:18:80:68:4e:e5:6e:8c:59:68:43:49:da:af:32:
                    ae:fd:34:d6:dc:5e:b0:10:47:02:6e:8e:a1:b8:11:
                    47:30:92:c8:dd:ea:21:1e:2b:7e:33:f1:e0:3b:72:
                    73:c6:b7:ac:2a:86:b1:bc:85:0c:a1:1a:00:8e:b5:
                    d6:f3:c5:22:b0:ca:54:e0:57:7d:b8:e4:19:a1:b5:
                    77:e5:a4:cc:59:f3:a9:41:21:5d:c0:cb:12:f8:99:
                    37:ab:ee:95:bd:3e:67:ac:01:0b:0b:bd:7e:a9:f0:
                    b6:bb:ec:ef:9e:5c:dd:55:8d:13:d1:07:bf:e0:be:
                    22:e3:7f:d2:98:1c:56:c9:f6:18:42:70:85:57:32:
                    81:90:12:47:99:67:37:b9:75:5c:af:5e:97:03:54:
                    4a:92:e7:05:19:48:98:3e:da:5c:e9:26:b6:cb:f6:
                    b2:ae:81
                Exponent: 65537 (0x10001)
        X509v3 extensions:
            X509v3 Key Usage: critical
                Certificate Sign, CRL Sign
            X509v3 Basic Constraints: critical
                CA:TRUE, pathlen:0
            X509v3 Subject Key Identifier: 
                B2:D5:90:11:DB:65:FB:59:D6:EA:DD:99:12:3F:29:1A:A3:12:F3:98
            X509v3 Authority Key Identifier: 
                keyid:E0:3D:76:AA:FC:67:DA:CC:15:74:2E:B2:B4:27:4E:3B:22:3E:C2:E7

            X509v3 CRL Distribution Points: 

                Full Name:
                  URI:http://svs24.ful.informatik.haw-hamburg.de/root-ca.crl

    Signature Algorithm: sha256WithRSAEncryption
         0c:41:43:96:40:94:45:02:c4:15:fd:57:88:67:3b:39:3b:28:
         9f:1d:51:02:cd:bd:5d:73:04:c7:50:c5:7c:e8:58:3b:83:67:
         cd:ad:65:c0:6f:b3:60:8c:13:ba:8c:93:aa:09:4a:dd:ce:3b:
         34:75:02:cb:03:d2:98:c1:26:7d:1b:cc:14:e1:09:59:81:54:
         7a:57:d3:1b:54:db:a2:80:4d:b9:39:44:d4:44:69:1e:73:69:
         22:b3:0e:eb:25:36:cb:ae:39:05:45:3a:a2:a0:ee:65:45:ba:
         a0:19:0f:79:c1:8b:b1:8f:bd:43:fd:f5:b5:d7:13:f0:09:88:
         cb:bb:73:4e:44:47:59:55:e3:ea:e7:48:15:8f:c2:54:32:34:
         05:cb:5e:dc:ac:b2:52:3f:b1:33:f1:e7:fc:f7:f4:b7:14:84:
         5b:5b:d7:d1:73:cc:9c:7a:f5:0a:6f:1a:f9:1d:18:aa:35:ef:
         d6:b3:47:d5:24:4a:a4:5c:78:fe:0d:f0:87:61:58:6b:e5:f2:
         48:1c:aa:e5:dc:fc:65:a6:72:75:f2:97:c5:fd:86:2a:8a:3e:
         bf:54:aa:85:62:a2:ea:66:77:11:35:b2:c2:38:87:19:12:0f:
         af:66:53:55:0f:e5:cb:8d:0e:fe:8a:dd:3f:49:14:5d:76:a3:
         66:05:b4:67:85:6d:6b:31:52:3c:3b:88:a0:af:b8:32:e7:f8:
         14:ad:ea:03:ba:c1:ea:ab:02:e2:8d:d3:02:e6:7e:02:97:86:
         2a:08:6f:1c:bb:dd:7f:27:55:05:9e:6d:fa:3f:72:c2:73:63:
         f5:a0:32:f3:b2:05:34:a9:40:c1:6a:fc:47:fa:08:bb:a4:8c:
         35:8a:44:0c:d4:32:fe:b6:8f:60:b2:c9:91:c6:53:b9:50:93:
         d3:e7:e2:34:01:ed:9f:94:c6:c3:78:90:74:f6:cd:59:0a:d3:
         b4:2d:94:28:c3:88:f9:5c:03:b5:8b:be:7b:d6:ca:5a:30:ff:
         a2:7d:16:a8:df:2e:6d:f9:de:03:cb:22:74:8d:84:a2:17:67:
         10:8a:c7:33:e2:7b:84:12:c7:7e:8e:68:4d:2d:39:67:b3:e9:
         a0:a0:13:fb:8f:a3:bc:8c:76:43:52:1a:0d:29:2f:92:ca:54:
         70:0b:80:2e:e7:45:2d:4b:21:b1:7d:90:04:11:94:b0:6e:d4:
         55:cc:6c:7d:7e:74:3c:c1:52:89:56:8b:d7:4d:c6:ae:16:0b:
         b9:9c:b2:4c:4e:9d:83:b5:7a:07:e7:65:ac:db:6a:87:a2:d4:
         71:b3:5d:3d:40:08:b4:1e:d9:82:5c:4b:59:ec:dc:d0:b5:aa:
         f9:b3:24:d0:b4:06:3b:06
-----BEGIN CERTIFICATE-----
MIIFzjCCA7agAwIBAgIBAjANBgkqhkiG9w0BAQsFADBLMQswCQYDVQQGEwJERTEQ
MA4GA1UECAwHSGFtYnVyZzEUMBIGA1UECgwLaGF3LWhhbWJ1cmcxFDASBgNVBAMM
C1NWUyBSb290IENBMB4XDTIyMDYyOTIxNDEwOFoXDTIzMDYyOTIxNDEwOFowVzEL
MAkGA1UEBhMCREUxEDAOBgNVBAgMB0hhbWJ1cmcxFDASBgNVBAoMC2hhdy1oYW1i
dXJnMQwwCgYDVQQLDANTVlMxEjAQBgNVBAMMCVN1Yi1DQS0yNDCCAiIwDQYJKoZI
hvcNAQEBBQADggIPADCCAgoCggIBALvemVmUiM662WQKMnNxegPmu2c55kBqDi50
61mkYJwFIAqZmDt0Qpoof4LlKAOjB/HCgf47Dvigowde16RoeZSH+oao1panqU1Z
FFbTuiw3kfu3xav4ynLJsP/2VKB0xsbk4u8xj5WoFgHVuvqU2O3tUQ+1AAtJ/SMk
OnkHJXLDB7Y6NzW8zqevyJ99aK9k0Njq7IdXH1EV4t20acA/h9k5nT6qW67Mj8jQ
j4QhgZhwaQxbov/yEwom/vD4rRV+jCmuc7jq+TbB0do/ZJull45tRp8PIFFy7v64
SkPglvlTyhnVCnhIfCQaIbAJ4Ww5VO/DlLKr3v9PknQfSiI8kkAsAqMfikNZqT1y
kfkXQMONWj22egoFnUZAsNzVOgs13RTS0OCj6hQBAzn007kD/OKJUi47RiJVlU3D
nWrlqE4MdCB1ltcgddrr1K6mVbKq7RgkDZmdwMD6+RiAaE7lboxZaENJ2q8yrv00
1txesBBHAm6OobgRRzCSyN3qIR4rfjPx4Dtyc8a3rCqGsbyFDKEaAI611vPFIrDK
VOBXfbjkGaG1d+WkzFnzqUEhXcDLEviZN6vulb0+Z6wBCwu9fqnwtrvs755c3VWN
E9EHv+C+IuN/0pgcVsn2GEJwhVcygZASR5lnN7l1XK9elwNUSpLnBRlImD7aXOkm
tsv2sq6BAgMBAAGjgbAwga0wDgYDVR0PAQH/BAQDAgEGMBIGA1UdEwEB/wQIMAYB
Af8CAQAwHQYDVR0OBBYEFLLVkBHbZftZ1urdmRI/KRqjEvOYMB8GA1UdIwQYMBaA
FOA9dqr8Z9rMFXQusrQnTjsiPsLnMEcGA1UdHwRAMD4wPKA6oDiGNmh0dHA6Ly9z
dnMyNC5mdWwuaW5mb3JtYXRpay5oYXctaGFtYnVyZy5kZS9yb290LWNhLmNybDAN
BgkqhkiG9w0BAQsFAAOCAgEADEFDlkCURQLEFf1XiGc7OTsonx1RAs29XXMEx1DF
fOhYO4Nnza1lwG+zYIwTuoyTqglK3c47NHUCywPSmMEmfRvMFOEJWYFUelfTG1Tb
ooBNuTlE1ERpHnNpIrMO6yU2y645BUU6oqDuZUW6oBkPecGLsY+9Q/31tdcT8AmI
y7tzTkRHWVXj6udIFY/CVDI0Bcte3KyyUj+xM/Hn/Pf0txSEW1vX0XPMnHr1Cm8a
+R0YqjXv1rNH1SRKpFx4/g3wh2FYa+XySByq5dz8ZaZydfKXxf2GKoo+v1SqhWKi
6mZ3ETWywjiHGRIPr2ZTVQ/ly40O/ordP0kUXXajZgW0Z4VtazFSPDuIoK+4Muf4
FK3qA7rB6qsC4o3TAuZ+ApeGKghvHLvdfydVBZ5t+j9ywnNj9aAy87IFNKlAwWr8
R/oIu6SMNYpEDNQy/raPYLLJkcZTuVCT0+fiNAHtn5TGw3iQdPbNWQrTtC2UKMOI
+VwDtYu+e9bKWjD/on0WqN8ubfneA8sidI2EohdnEIrHM+J7hBLHfo5oTS05Z7Pp
oKAT+4+jvIx2Q1IaDSkvkspUcAuALudFLUshsX2QBBGUsG7UVcxsfX50PMFSiVaL
103GrhYLuZyyTE6dg7V6B+dlrNtqh6LUcbNdPUAItB7ZglxLWezc0LWq+bMk0LQG
OwY=
-----END CERTIFICATE-----
