Certificate:
    Data:
        Version: 3 (0x2)
        Serial Number: 2 (0x2)
        Signature Algorithm: sha256WithRSAEncryption
        Issuer: C=DE, ST=Hamburg, O=haw-hamburg, CN=SVS Root CA
        Validity
            Not Before: Jul  2 16:08:57 2022 GMT
            Not After : Jul  2 16:08:57 2023 GMT
        Subject: C=DE, ST=Hamburg, O=haw-hamburg, OU=SVS, CN=Sub-CA-24
        Subject Public Key Info:
            Public Key Algorithm: rsaEncryption
                RSA Public-Key: (4096 bit)
                Modulus:
                    00:ce:05:94:de:7a:42:e0:76:d9:09:85:dd:7a:7e:
                    96:49:9d:20:fd:06:da:9b:6c:96:64:cc:a9:b9:99:
                    60:88:a9:c0:aa:1a:f6:f3:30:1d:85:ce:24:fd:8d:
                    35:4d:41:16:ab:ce:32:ae:c8:b9:0c:b7:a7:8a:10:
                    ad:ec:80:43:0e:7c:e5:a6:09:26:5d:ff:5f:f6:29:
                    fe:98:55:e0:28:62:24:38:25:a2:ad:2b:78:d4:bb:
                    9d:b9:8f:27:ce:e8:72:f4:25:85:e7:57:c3:cd:8d:
                    6a:c2:98:88:68:d5:dc:f9:65:fd:0a:29:16:7a:d6:
                    f6:f1:d1:99:7c:ce:5b:e6:d4:ca:95:9a:aa:f1:c0:
                    8a:16:f1:9a:35:63:37:0b:21:c3:93:ab:fe:28:47:
                    44:69:b6:38:3b:ce:3f:b0:e7:79:04:b8:d7:2e:09:
                    9e:b3:d5:39:e5:1f:6d:c5:09:d5:30:25:6b:c9:17:
                    02:fb:e5:98:f5:7a:c2:ff:ad:8a:ab:ff:58:e9:cd:
                    e5:58:d7:d6:54:79:57:6e:7b:de:71:65:8c:ed:25:
                    08:74:10:f7:97:30:2d:7b:3a:59:e5:cf:f3:3e:05:
                    9a:da:1c:db:3c:e6:27:d8:5a:cd:57:64:6a:eb:03:
                    53:16:00:08:dd:eb:37:05:29:d2:29:93:5c:c6:7d:
                    49:53:ab:60:82:aa:d6:7e:a9:af:45:84:48:3e:70:
                    97:a2:5a:38:01:a7:9a:f4:b3:a6:eb:b7:1c:04:ed:
                    6a:1b:4a:16:2d:be:53:27:eb:4c:dd:a7:50:04:a1:
                    4c:ad:6c:ef:52:3f:ee:c0:5d:8f:69:10:ff:54:c1:
                    0a:d8:25:9a:d9:e3:fa:27:ec:75:23:3e:e8:db:d9:
                    b8:8e:3d:a3:c8:dc:6d:bf:92:15:7a:ba:db:22:26:
                    96:6d:02:fb:81:94:8f:80:fa:16:13:ff:81:23:93:
                    63:48:21:09:aa:9c:93:51:ea:70:67:fb:44:31:d1:
                    5d:64:32:d5:01:55:45:3c:28:8b:68:32:8b:d0:22:
                    b4:9b:46:ba:18:9f:ce:58:83:ab:89:36:4c:20:90:
                    81:1b:11:7a:ad:51:3d:42:b5:1f:18:1d:61:f6:0d:
                    0a:71:1d:51:21:29:b1:f9:5e:96:77:82:5a:cf:3b:
                    6a:60:5d:d5:cb:69:c1:29:cb:4c:7e:70:8b:27:b4:
                    7d:f5:19:c8:a5:7e:e9:1f:8c:dc:ef:42:cb:ee:0d:
                    94:84:21:36:e7:f8:0f:bc:7b:9a:67:31:8f:db:3a:
                    b0:ef:05:5b:80:32:19:a6:13:0d:10:f9:1b:60:e4:
                    5a:7d:d5:2b:5d:0b:58:1b:4f:f8:0d:fc:5f:64:33:
                    a2:bd:07
                Exponent: 65537 (0x10001)
        X509v3 extensions:
            X509v3 Key Usage: critical
                Certificate Sign, CRL Sign
            X509v3 Basic Constraints: critical
                CA:TRUE, pathlen:0
            X509v3 Subject Key Identifier: 
                FA:64:41:E5:6B:17:64:0E:75:48:30:15:11:27:0F:73:08:EA:5F:D0
            X509v3 Authority Key Identifier: 
                keyid:3F:6F:A9:3A:76:DA:D9:BB:93:51:D4:E0:A6:C6:9C:87:D3:BF:40:99

            X509v3 CRL Distribution Points: 

                Full Name:
                  URI:http://svs24.ful.informatik.haw-hamburg.de/root-ca.crl

    Signature Algorithm: sha256WithRSAEncryption
         5d:b3:74:92:71:8c:3c:cc:17:22:a2:91:9d:d5:88:0d:79:fe:
         ed:52:34:c3:9a:56:7c:78:f9:17:b7:90:6c:ea:19:92:4f:a1:
         e9:b8:9f:73:f9:c6:70:40:36:71:2e:a8:9d:2f:20:fb:39:e0:
         d6:7c:35:2c:c9:4d:3b:9e:3a:11:1b:3d:92:cc:1e:e1:c4:00:
         cd:29:b1:c3:79:64:ff:99:93:ce:86:a7:81:4a:44:45:ba:1c:
         fe:ab:32:0d:88:71:04:54:3f:e1:37:f0:39:8b:b9:21:c6:37:
         5f:7f:f9:05:6a:88:94:de:f6:de:f5:d3:58:13:4a:9b:83:bf:
         c0:a5:33:07:2d:6e:29:c7:1a:da:b8:4c:77:20:d6:dc:4e:f8:
         c4:13:95:f4:4b:bb:2f:b6:b2:e2:c2:01:ea:66:29:b9:dd:60:
         da:6c:b2:92:67:ca:ed:ba:c4:57:ab:04:45:ee:50:56:59:31:
         ea:d5:73:16:61:e3:21:59:b8:e6:95:57:cd:a3:bc:8f:59:94:
         a3:02:8e:78:8a:0a:ea:72:c5:4b:24:c8:23:21:00:1f:d7:25:
         5a:d1:49:23:f1:57:15:43:16:38:df:f9:ba:92:34:e4:bb:36:
         c1:0d:b8:ce:a6:37:b3:01:8b:fe:8b:1a:18:67:7f:6f:ff:34:
         55:2e:5c:9a:ac:aa:dc:f1:11:89:ee:51:9a:a8:1d:3f:b9:a4:
         e2:5e:94:12:82:d2:88:d4:e1:8c:b6:c6:50:40:86:9a:b3:f2:
         34:1b:24:a8:72:f0:ad:4c:47:f6:94:34:00:4c:1d:8b:ac:8b:
         7f:42:2a:4c:f7:ec:90:60:77:a6:01:1c:15:54:88:39:c4:1c:
         cc:02:f6:d4:f9:89:43:8c:90:b4:72:7c:fe:11:1b:f3:d3:e0:
         4b:0e:eb:60:89:ce:f9:9b:1e:c1:ee:9e:81:ea:7d:9c:1d:30:
         e6:ac:a1:8a:13:bc:96:70:db:0e:ff:d9:92:2c:54:e3:1b:ab:
         e2:35:9b:c8:32:1e:73:42:ba:3b:79:5b:30:8d:10:04:d9:c6:
         04:57:61:5c:9b:21:d0:c4:67:a8:e4:16:ba:ba:cc:78:74:58:
         0c:6c:9f:e1:cf:19:52:6a:f3:21:ba:72:06:7c:8a:01:89:84:
         cd:14:e5:27:76:20:e6:51:b8:4d:ed:ea:35:e5:bd:79:d4:eb:
         90:a9:e4:84:36:f4:68:7f:c0:37:8f:c0:ba:f5:93:59:73:8d:
         5e:6b:db:8b:70:1f:6f:80:0b:3e:c0:1b:d8:08:33:c2:da:7e:
         4d:e1:ee:0a:b5:31:33:da:41:9d:d5:9b:6c:b6:ab:d5:9f:5b:
         6f:d6:00:0b:a1:ad:c7:9e
-----BEGIN CERTIFICATE-----
MIIFzjCCA7agAwIBAgIBAjANBgkqhkiG9w0BAQsFADBLMQswCQYDVQQGEwJERTEQ
MA4GA1UECAwHSGFtYnVyZzEUMBIGA1UECgwLaGF3LWhhbWJ1cmcxFDASBgNVBAMM
C1NWUyBSb290IENBMB4XDTIyMDcwMjE2MDg1N1oXDTIzMDcwMjE2MDg1N1owVzEL
MAkGA1UEBhMCREUxEDAOBgNVBAgMB0hhbWJ1cmcxFDASBgNVBAoMC2hhdy1oYW1i
dXJnMQwwCgYDVQQLDANTVlMxEjAQBgNVBAMMCVN1Yi1DQS0yNDCCAiIwDQYJKoZI
hvcNAQEBBQADggIPADCCAgoCggIBAM4FlN56QuB22QmF3Xp+lkmdIP0G2ptslmTM
qbmZYIipwKoa9vMwHYXOJP2NNU1BFqvOMq7IuQy3p4oQreyAQw585aYJJl3/X/Yp
/phV4ChiJDgloq0reNS7nbmPJ87ocvQlhedXw82NasKYiGjV3Pll/QopFnrW9vHR
mXzOW+bUypWaqvHAihbxmjVjNwshw5Or/ihHRGm2ODvOP7DneQS41y4JnrPVOeUf
bcUJ1TAla8kXAvvlmPV6wv+tiqv/WOnN5VjX1lR5V2573nFljO0lCHQQ95cwLXs6
WeXP8z4Fmtoc2zzmJ9hazVdkausDUxYACN3rNwUp0imTXMZ9SVOrYIKq1n6pr0WE
SD5wl6JaOAGnmvSzpuu3HATtahtKFi2+UyfrTN2nUAShTK1s71I/7sBdj2kQ/1TB
Ctglmtnj+ifsdSM+6NvZuI49o8jcbb+SFXq62yImlm0C+4GUj4D6FhP/gSOTY0gh
Caqck1HqcGf7RDHRXWQy1QFVRTwoi2gyi9AitJtGuhifzliDq4k2TCCQgRsReq1R
PUK1HxgdYfYNCnEdUSEpsflelneCWs87amBd1ctpwSnLTH5wiye0ffUZyKV+6R+M
3O9Cy+4NlIQhNuf4D7x7mmcxj9s6sO8FW4AyGaYTDRD5G2DkWn3VK10LWBtP+A38
X2Qzor0HAgMBAAGjgbAwga0wDgYDVR0PAQH/BAQDAgEGMBIGA1UdEwEB/wQIMAYB
Af8CAQAwHQYDVR0OBBYEFPpkQeVrF2QOdUgwFREnD3MI6l/QMB8GA1UdIwQYMBaA
FD9vqTp22tm7k1HU4KbGnIfTv0CZMEcGA1UdHwRAMD4wPKA6oDiGNmh0dHA6Ly9z
dnMyNC5mdWwuaW5mb3JtYXRpay5oYXctaGFtYnVyZy5kZS9yb290LWNhLmNybDAN
BgkqhkiG9w0BAQsFAAOCAgEAXbN0knGMPMwXIqKRndWIDXn+7VI0w5pWfHj5F7eQ
bOoZkk+h6bifc/nGcEA2cS6onS8g+zng1nw1LMlNO546ERs9kswe4cQAzSmxw3lk
/5mTzoangUpERboc/qsyDYhxBFQ/4TfwOYu5IcY3X3/5BWqIlN723vXTWBNKm4O/
wKUzBy1uKcca2rhMdyDW3E74xBOV9Eu7L7ay4sIB6mYpud1g2myykmfK7brEV6sE
Re5QVlkx6tVzFmHjIVm45pVXzaO8j1mUowKOeIoK6nLFSyTIIyEAH9clWtFJI/FX
FUMWON/5upI05Ls2wQ24zqY3swGL/osaGGd/b/80VS5cmqyq3PERie5RmqgdP7mk
4l6UEoLSiNThjLbGUECGmrPyNBskqHLwrUxH9pQ0AEwdi6yLf0IqTPfskGB3pgEc
FVSIOcQczAL21PmJQ4yQtHJ8/hEb89PgSw7rYInO+Zsewe6egep9nB0w5qyhihO8
lnDbDv/ZkixU4xur4jWbyDIec0K6O3lbMI0QBNnGBFdhXJsh0MRnqOQWurrMeHRY
DGyf4c8ZUmrzIbpyBnyKAYmEzRTlJ3Yg5lG4Te3qNeW9edTrkKnkhDb0aH/AN4/A
uvWTWXONXmvbi3Afb4ALPsAb2Agzwtp+TeHuCrUxM9pBndWbbLar1Z9bb9YAC6Gt
x54=
-----END CERTIFICATE-----
