Certificate:
    Data:
        Version: 3 (0x2)
        Serial Number: 2 (0x2)
        Signature Algorithm: sha256WithRSAEncryption
        Issuer: C=DE, ST=Hamburg, O=haw-hamburg, CN=SVS Root CA
        Validity
            Not Before: Jun 23 15:50:00 2022 GMT
            Not After : Jun 23 15:50:00 2023 GMT
        Subject: C=DE, ST=Hamburg, O=haw-hamburg, OU=SVS, CN=Sub-CA-24
        Subject Public Key Info:
            Public Key Algorithm: rsaEncryption
                RSA Public-Key: (2048 bit)
                Modulus:
                    00:cd:88:74:65:32:33:44:24:2f:a8:21:f2:cc:16:
                    7f:af:4b:94:c6:10:1f:8d:5c:fb:93:94:af:12:c9:
                    00:44:c9:e9:bd:ab:3c:40:b5:54:14:a4:fc:d7:32:
                    e8:ee:48:03:6b:f4:30:20:fd:4d:61:12:e9:bc:c0:
                    cc:b1:fc:35:9e:41:5f:25:93:10:e1:3d:cd:e1:a5:
                    a1:b9:92:43:67:57:fa:90:bb:68:de:69:54:8e:45:
                    e0:b2:4e:e4:8f:c6:d8:9d:45:71:a2:e8:0e:8b:e2:
                    da:d7:e7:a5:1a:9e:32:40:cd:ac:86:7f:29:5e:7d:
                    5b:67:01:e7:b7:d8:ac:35:28:4c:5d:96:f9:9a:25:
                    fa:6a:2d:d3:83:9d:47:81:c7:01:cc:8c:e6:7f:fd:
                    2d:17:0f:2c:f6:83:4a:5e:05:ae:63:b6:ea:c2:28:
                    ab:90:0d:4b:24:ab:7f:82:d6:af:b1:d7:72:18:ac:
                    f5:e6:9e:6b:07:6e:e0:9b:e5:0f:c1:ab:ea:76:38:
                    08:9c:82:65:e5:53:1d:13:75:be:5b:a5:29:28:19:
                    31:27:5d:26:bd:78:66:af:34:82:ea:51:4d:35:c5:
                    16:8f:a1:2a:6e:af:51:8c:a3:6e:af:38:aa:37:51:
                    52:e4:89:9f:78:e9:62:3b:05:9c:e8:23:12:39:23:
                    e3:31
                Exponent: 65537 (0x10001)
        X509v3 extensions:
            X509v3 Key Usage: critical
                Certificate Sign, CRL Sign
            X509v3 Basic Constraints: critical
                CA:TRUE, pathlen:0
            X509v3 Subject Key Identifier: 
                7B:08:AF:03:AB:CF:E9:CE:2D:9C:1F:EF:BD:42:EC:CC:6C:73:D5:AD
            X509v3 Authority Key Identifier: 
                keyid:AD:1A:A8:F8:C0:93:1F:EA:E4:A8:41:4D:84:B4:AA:6B:B7:D2:9A:2C

    Signature Algorithm: sha256WithRSAEncryption
         5b:07:ac:2f:43:bf:dc:55:d6:01:d7:04:ce:c9:b3:dc:62:da:
         64:10:a0:f5:cb:87:6b:40:85:88:65:9a:a9:94:f0:db:1d:29:
         9a:a2:3f:32:2d:59:07:49:82:33:bb:e7:0a:7f:8e:6c:7f:9d:
         6e:69:65:12:61:07:4a:c9:bd:04:1d:b6:fd:86:8a:57:f1:03:
         1c:97:df:16:f4:bd:0c:6e:48:64:8f:46:d1:56:2a:e3:3f:ab:
         23:6b:a8:da:8e:4c:4f:f8:a3:8f:93:6a:51:f2:4e:f8:17:12:
         0b:28:ad:3d:0b:e4:01:3b:49:5c:49:bf:c7:b1:28:a1:07:f9:
         32:3a:f0:17:63:f5:16:fd:aa:3d:c5:bf:51:13:a5:36:c4:52:
         69:5c:de:7a:eb:3a:a9:a4:3d:af:48:82:c1:67:e1:80:19:c6:
         09:93:a8:94:34:69:a4:23:49:66:2c:f7:75:71:2f:91:70:5f:
         4f:da:9d:dc:35:65:55:13:62:b3:2e:b4:1d:7a:1e:20:52:f8:
         70:97:e3:94:24:f0:0c:df:9a:04:06:61:7f:a5:f5:70:5c:0b:
         85:15:75:4e:bb:74:fc:09:98:93:5f:81:02:ec:ca:10:66:f5:
         e5:63:0c:99:f4:7a:65:1a:67:c3:0e:1d:c4:03:6f:fc:e8:03:
         25:b5:23:e7
-----BEGIN CERTIFICATE-----
MIIDgzCCAmugAwIBAgIBAjANBgkqhkiG9w0BAQsFADBLMQswCQYDVQQGEwJERTEQ
MA4GA1UECBMHSGFtYnVyZzEUMBIGA1UEChMLaGF3LWhhbWJ1cmcxFDASBgNVBAMT
C1NWUyBSb290IENBMB4XDTIyMDYyMzE1NTAwMFoXDTIzMDYyMzE1NTAwMFowVzEL
MAkGA1UEBhMCREUxEDAOBgNVBAgTB0hhbWJ1cmcxFDASBgNVBAoTC2hhdy1oYW1i
dXJnMQwwCgYDVQQLEwNTVlMxEjAQBgNVBAMTCVN1Yi1DQS0yNDCCASIwDQYJKoZI
hvcNAQEBBQADggEPADCCAQoCggEBAM2IdGUyM0QkL6gh8swWf69LlMYQH41c+5OU
rxLJAETJ6b2rPEC1VBSk/Ncy6O5IA2v0MCD9TWES6bzAzLH8NZ5BXyWTEOE9zeGl
obmSQ2dX+pC7aN5pVI5F4LJO5I/G2J1FcaLoDovi2tfnpRqeMkDNrIZ/KV59W2cB
57fYrDUoTF2W+Zol+mot04OdR4HHAcyM5n/9LRcPLPaDSl4FrmO26sIoq5ANSySr
f4LWr7HXchis9eaeawdu4JvlD8Gr6nY4CJyCZeVTHRN1vlulKSgZMSddJr14Zq80
gupRTTXFFo+hKm6vUYyjbq84qjdRUuSJn3jpYjsFnOgjEjkj4zECAwEAAaNmMGQw
DgYDVR0PAQH/BAQDAgEGMBIGA1UdEwEB/wQIMAYBAf8CAQAwHQYDVR0OBBYEFHsI
rwOrz+nOLZwf771C7Mxsc9WtMB8GA1UdIwQYMBaAFK0aqPjAkx/q5KhBTYS0qmu3
0posMA0GCSqGSIb3DQEBCwUAA4IBAQBbB6wvQ7/cVdYB1wTOybPcYtpkEKD1y4dr
QIWIZZqplPDbHSmaoj8yLVkHSYIzu+cKf45sf51uaWUSYQdKyb0EHbb9hopX8QMc
l98W9L0Mbkhkj0bRVirjP6sja6jajkxP+KOPk2pR8k74FxILKK09C+QBO0lcSb/H
sSihB/kyOvAXY/UW/ao9xb9RE6U2xFJpXN566zqppD2vSILBZ+GAGcYJk6iUNGmk
I0lmLPd1cS+RcF9P2p3cNWVVE2KzLrQdeh4gUvhwl+OUJPAM35oEBmF/pfVwXAuF
FXVOu3T8CZiTX4EC7MoQZvXlYwyZ9HplGmfDDh3EA2/86AMltSPn
-----END CERTIFICATE-----
