Certificate:
    Data:
        Version: 3 (0x2)
        Serial Number: 2 (0x2)
        Signature Algorithm: sha256WithRSAEncryption
        Issuer: C=DE, ST=Hamburg, O=haw-hamburg, CN=SVS Root CA
        Validity
            Not Before: Jun 23 15:42:48 2022 GMT
            Not After : Jun 23 15:42:48 2023 GMT
        Subject: C=DE, ST=Hamburg, O=haw-hamburg, OU=SVS, CN=Sub-CA-24
        Subject Public Key Info:
            Public Key Algorithm: rsaEncryption
                RSA Public-Key: (2048 bit)
                Modulus:
                    00:bb:03:ca:23:f8:f1:fd:16:1c:86:e1:77:b1:74:
                    8e:65:16:82:e4:2a:14:35:8a:47:2a:2b:dd:ee:0d:
                    36:0c:0b:2c:6d:8d:45:04:ec:c2:dc:47:7b:b5:97:
                    d9:67:84:e9:fd:b3:ee:39:98:42:bb:56:79:65:84:
                    77:ac:c8:40:d5:1e:da:56:d1:2b:39:3e:98:93:86:
                    49:15:2c:18:4c:e7:38:2a:4a:52:b0:ea:e7:1c:17:
                    67:1e:b0:39:e9:ba:61:b7:df:a2:a9:af:09:91:d5:
                    30:1f:9c:e4:fe:2f:08:2d:5b:a9:59:a8:3d:cb:16:
                    4c:bd:63:ee:d5:72:64:60:72:4e:90:72:19:6f:e6:
                    ed:98:fa:01:97:be:41:46:b3:f9:ee:cf:15:a3:d1:
                    da:59:84:45:68:42:7b:a3:64:8e:69:62:e3:f5:37:
                    64:ed:0a:bf:58:9a:81:7b:72:86:bb:db:97:0c:b0:
                    10:00:23:c8:b2:9d:e0:b1:92:85:c8:6e:24:7a:17:
                    18:e4:7e:da:ed:11:b4:96:6a:a2:e8:1e:24:dc:02:
                    9c:8a:ce:39:64:76:bb:af:96:a1:0c:14:e6:76:86:
                    8e:3a:bd:01:fc:6b:51:7a:e3:0c:b5:7d:ff:ef:6a:
                    f1:23:6d:51:d5:ef:a9:89:86:16:04:1a:bb:19:b9:
                    da:a3
                Exponent: 65537 (0x10001)
        X509v3 extensions:
            X509v3 Key Usage: critical
                Certificate Sign, CRL Sign
            X509v3 Basic Constraints: critical
                CA:TRUE, pathlen:0
            X509v3 Subject Key Identifier: 
                55:00:B0:B3:48:DF:D5:3A:09:05:1D:49:63:2D:AD:24:E5:6C:C1:15
            X509v3 Authority Key Identifier: 
                keyid:3D:58:90:0E:63:48:DE:DD:71:1D:B3:04:62:69:8F:52:BF:20:E4:7F

    Signature Algorithm: sha256WithRSAEncryption
         85:f1:62:1e:b2:9e:b9:09:75:a1:ca:3f:6c:9f:36:e2:3e:b8:
         6d:c8:0b:64:36:43:51:3d:22:bf:57:fb:a6:51:ee:57:98:92:
         0c:d5:ea:3b:40:57:5e:cd:f9:c0:a0:69:a8:8e:dd:bc:1d:ff:
         22:3a:20:10:fe:8e:1f:5f:3a:0e:38:54:49:00:8b:83:96:9b:
         aa:62:ac:91:91:17:0a:75:c7:5c:d7:f5:81:74:4d:3f:65:c8:
         42:f3:bf:f6:2d:d7:7a:b3:09:57:5b:b6:fa:3c:e9:e0:db:7a:
         95:b6:c5:43:f2:b0:9b:be:7e:86:5c:75:f2:44:94:06:d3:80:
         35:a4:7a:1c:18:1a:b2:b6:db:46:20:e4:f8:78:e7:56:3f:b3:
         ee:1b:70:6f:17:24:5f:f5:ab:2c:ab:53:1f:56:5c:f7:88:15:
         e7:a2:2c:32:18:da:2b:35:db:c5:4d:61:3f:62:22:0c:6b:20:
         28:70:04:52:fe:20:cf:2c:3b:63:01:77:d2:2d:51:bc:e3:51:
         10:62:95:80:26:9f:23:45:3e:73:9b:7b:82:bc:19:1d:d2:e8:
         d8:b9:2d:04:d9:47:11:05:c5:5e:59:91:f4:cc:a5:7d:61:11:
         02:ff:ff:f0:c0:de:ef:ac:2b:ab:0c:8b:e8:8e:dc:8a:88:42:
         45:10:d6:07
-----BEGIN CERTIFICATE-----
MIIDgzCCAmugAwIBAgIBAjANBgkqhkiG9w0BAQsFADBLMQswCQYDVQQGEwJERTEQ
MA4GA1UECBMHSGFtYnVyZzEUMBIGA1UEChMLaGF3LWhhbWJ1cmcxFDASBgNVBAMT
C1NWUyBSb290IENBMB4XDTIyMDYyMzE1NDI0OFoXDTIzMDYyMzE1NDI0OFowVzEL
MAkGA1UEBhMCREUxEDAOBgNVBAgTB0hhbWJ1cmcxFDASBgNVBAoTC2hhdy1oYW1i
dXJnMQwwCgYDVQQLEwNTVlMxEjAQBgNVBAMTCVN1Yi1DQS0yNDCCASIwDQYJKoZI
hvcNAQEBBQADggEPADCCAQoCggEBALsDyiP48f0WHIbhd7F0jmUWguQqFDWKRyor
3e4NNgwLLG2NRQTswtxHe7WX2WeE6f2z7jmYQrtWeWWEd6zIQNUe2lbRKzk+mJOG
SRUsGEznOCpKUrDq5xwXZx6wOem6YbffoqmvCZHVMB+c5P4vCC1bqVmoPcsWTL1j
7tVyZGByTpByGW/m7Zj6AZe+QUaz+e7PFaPR2lmERWhCe6Nkjmli4/U3ZO0Kv1ia
gXtyhrvblwywEAAjyLKd4LGShchuJHoXGOR+2u0RtJZqougeJNwCnIrOOWR2u6+W
oQwU5naGjjq9AfxrUXrjDLV9/+9q8SNtUdXvqYmGFgQauxm52qMCAwEAAaNmMGQw
DgYDVR0PAQH/BAQDAgEGMBIGA1UdEwEB/wQIMAYBAf8CAQAwHQYDVR0OBBYEFFUA
sLNI39U6CQUdSWMtrSTlbMEVMB8GA1UdIwQYMBaAFD1YkA5jSN7dcR2zBGJpj1K/
IOR/MA0GCSqGSIb3DQEBCwUAA4IBAQCF8WIesp65CXWhyj9snzbiPrhtyAtkNkNR
PSK/V/umUe5XmJIM1eo7QFdezfnAoGmojt28Hf8iOiAQ/o4fXzoOOFRJAIuDlpuq
YqyRkRcKdcdc1/WBdE0/ZchC87/2Ldd6swlXW7b6POng23qVtsVD8rCbvn6GXHXy
RJQG04A1pHocGBqytttGIOT4eOdWP7PuG3BvFyRf9assq1MfVlz3iBXnoiwyGNor
NdvFTWE/YiIMayAocARS/iDPLDtjAXfSLVG841EQYpWAJp8jRT5zm3uCvBkd0ujY
uS0E2UcRBcVeWZH0zKV9YREC///wwN7vrCurDIvojtyKiEJFENYH
-----END CERTIFICATE-----
