Certificate:
    Data:
        Version: 3 (0x2)
        Serial Number: 3 (0x3)
        Signature Algorithm: sha256WithRSAEncryption
        Issuer: C=DE, ST=Hamburg, O=haw-hamburg, CN=SVS Root CA
        Validity
            Not Before: Jul  2 16:58:34 2022 GMT
            Not After : Jul  2 16:58:34 2023 GMT
        Subject: C=DE, ST=Hamburg, O=haw-hamburg, OU=SVS, CN=Sub-CA-24-User
        Subject Public Key Info:
            Public Key Algorithm: rsaEncryption
                RSA Public-Key: (4096 bit)
                Modulus:
                    00:e8:bb:1d:03:53:02:40:90:98:37:8a:5e:69:f7:
                    61:49:c1:36:ed:c2:3a:ea:d9:17:ea:50:47:6d:18:
                    25:85:53:74:e5:fb:84:e2:43:36:6d:50:58:20:fa:
                    7d:bb:53:af:a9:61:e6:64:ab:15:34:93:67:64:3e:
                    83:12:c0:27:d5:72:7e:67:c5:cf:ff:99:cf:63:9e:
                    b6:b3:e5:79:b4:38:ee:e6:1c:dd:2c:57:8a:92:77:
                    17:df:2f:8c:a2:9b:58:1e:2a:00:ab:ed:49:3c:98:
                    2e:a6:14:7a:84:c8:27:ae:a0:b5:2c:e5:e6:27:7c:
                    ac:05:dd:e1:00:d0:24:fc:ab:86:b6:27:d3:b8:d4:
                    99:66:3a:d5:32:ee:38:d5:7f:7f:cc:b6:e0:f6:1a:
                    8c:36:57:6c:2a:b4:83:18:aa:da:2e:fe:8f:bc:6b:
                    73:67:ba:b0:36:4f:32:e8:e7:9f:97:3d:4d:42:5e:
                    aa:6c:13:9b:21:8f:53:78:50:d8:78:3a:1e:66:24:
                    78:d5:ac:64:33:29:b8:07:08:fb:81:de:b6:8b:09:
                    f2:00:51:ab:00:b5:8f:18:ad:9e:f1:84:5c:f0:b9:
                    54:70:67:49:1a:1b:4f:22:3d:1a:38:d0:94:8e:7a:
                    05:05:38:86:b5:09:f2:c4:f9:86:6d:56:8f:fb:00:
                    bc:58:b8:54:41:78:07:b9:f0:b1:70:2b:82:7f:be:
                    c2:ea:18:91:f0:32:52:4b:96:ab:4c:48:84:48:43:
                    c5:f9:49:8e:d4:1f:18:e7:63:27:49:1f:29:5f:09:
                    fc:f1:08:63:ba:ff:01:6b:0a:95:15:50:10:5a:55:
                    9d:b1:aa:77:fd:72:fb:8c:3d:26:2d:85:ec:5d:42:
                    82:6a:8a:39:ee:09:d0:73:e7:e7:1a:4d:25:e3:f7:
                    ed:0a:e3:bb:91:9c:63:c8:2b:67:7e:1f:02:b2:ea:
                    0f:cd:5d:53:98:d0:5d:ed:ca:e7:47:aa:25:3f:ce:
                    47:20:02:19:f4:f5:3b:f7:19:13:f3:f7:95:1a:b4:
                    c5:4f:8f:8b:51:e0:9e:2e:c7:26:0c:b0:db:da:d9:
                    3f:12:f2:fc:03:d9:c8:9e:80:ec:bd:a7:1e:d9:71:
                    2b:c7:7d:fb:b9:9d:cb:59:2e:4b:db:3e:89:e7:79:
                    91:73:ee:d9:8c:04:04:fc:f7:16:84:c0:b2:fd:52:
                    f1:35:9c:36:7d:43:cb:02:13:ed:bb:00:b9:8e:d9:
                    14:2f:64:00:07:28:36:51:8f:81:ee:22:04:20:60:
                    d1:61:bc:c6:fc:d9:ee:8e:4a:9b:4a:bf:00:e6:70:
                    a8:01:f9:28:12:23:e5:12:17:d1:e8:19:e7:b8:be:
                    66:07:f1
                Exponent: 65537 (0x10001)
        X509v3 extensions:
            X509v3 Key Usage: critical
                Certificate Sign, CRL Sign
            X509v3 Basic Constraints: critical
                CA:TRUE, pathlen:0
            X509v3 Subject Key Identifier: 
                33:AF:16:F0:6A:C9:F8:93:1E:9D:0D:0A:2C:ED:34:24:A6:E7:17:8B
            X509v3 Authority Key Identifier: 
                keyid:A6:78:CA:EA:B8:9A:C7:E4:9C:AB:C2:1D:00:F6:D7:07:34:94:C7:ED

            X509v3 CRL Distribution Points: 

                Full Name:
                  URI:http://svs24.ful.informatik.haw-hamburg.de/root-ca.crl

    Signature Algorithm: sha256WithRSAEncryption
         60:87:24:1d:6a:73:6b:ef:8c:8b:21:fa:86:0e:97:bc:b1:38:
         2f:fe:5e:f2:d4:a9:43:e3:9a:af:85:94:80:88:25:fc:74:88:
         3f:be:2c:71:b5:c7:5d:fe:b6:e5:73:df:d6:5e:a0:0e:be:70:
         56:84:9a:bf:db:8b:23:a2:2c:8c:4c:36:74:28:38:c3:78:fa:
         45:78:17:76:f0:22:89:2a:4e:f3:80:86:47:fa:fe:b9:e1:2e:
         93:40:f3:c8:ed:0b:b5:17:c6:8c:85:f0:80:31:be:b8:bf:c3:
         cd:27:28:3a:3d:bb:dc:ff:ee:e7:e6:ba:50:db:c8:f2:6c:10:
         08:8c:f6:28:30:9a:79:2a:22:26:c9:fc:73:fb:56:96:67:8f:
         d3:42:8a:f3:32:16:b4:42:20:d0:9b:4a:eb:a5:73:2e:4e:4d:
         94:74:e8:96:2c:17:ee:4a:d5:4c:ed:dc:71:a7:0b:7d:87:3d:
         2c:a0:fb:93:3e:a3:f4:62:86:cd:b5:65:c6:01:70:bb:7b:37:
         88:a5:6a:3f:51:af:a8:7d:f8:63:2c:68:69:71:e9:fd:e2:49:
         3c:e9:2b:ab:02:d7:b6:c5:f1:6e:ce:23:57:2f:ba:bb:a6:9a:
         59:d8:17:e0:e6:c9:fe:d3:eb:7d:cd:48:36:91:52:ba:00:65:
         a8:9b:c0:42:e3:b1:05:f5:9e:76:50:48:5e:27:e3:ef:98:c9:
         20:2e:00:0a:40:7f:dc:00:5a:f8:d6:94:f8:a1:6a:00:45:bc:
         74:a3:18:4b:6e:24:77:1a:8b:ff:9f:17:4a:32:eb:e5:71:fb:
         fb:02:c7:6f:36:40:84:ef:aa:6a:bc:a5:a2:1c:86:26:9f:7c:
         ee:b6:94:b3:73:69:b5:d5:dd:2f:4a:bd:bb:c2:c2:a8:19:d4:
         bb:75:9c:5c:e5:d9:52:5d:9a:6b:44:9e:f7:c5:4b:f4:31:0d:
         5e:0d:69:02:1a:e1:ac:fb:85:f6:13:73:0f:c2:b0:02:fa:65:
         cc:9c:90:20:7c:71:ee:e5:02:03:e7:ae:90:da:10:18:91:18:
         3b:68:5a:7b:3b:cf:47:98:21:ba:f8:1a:02:ec:d9:fd:fe:84:
         88:2c:92:16:0e:83:d1:ca:c3:94:b5:7a:1d:76:6a:c0:0f:62:
         25:c7:e9:87:85:3f:35:63:33:41:e8:c6:0c:65:1f:cd:75:54:
         d5:6b:70:4e:6d:57:2b:ae:24:a4:9d:6b:1a:aa:9d:dc:3b:23:
         1f:0e:22:83:b8:d7:9b:62:a9:19:fb:fe:c9:a4:c1:3d:e7:e2:
         b8:68:a8:1d:a3:a2:3d:d1:cd:f2:16:ce:9c:f7:73:5e:fa:67:
         79:99:37:7f:39:a1:f6:08
-----BEGIN CERTIFICATE-----
MIIF0zCCA7ugAwIBAgIBAzANBgkqhkiG9w0BAQsFADBLMQswCQYDVQQGEwJERTEQ
MA4GA1UECAwHSGFtYnVyZzEUMBIGA1UECgwLaGF3LWhhbWJ1cmcxFDASBgNVBAMM
C1NWUyBSb290IENBMB4XDTIyMDcwMjE2NTgzNFoXDTIzMDcwMjE2NTgzNFowXDEL
MAkGA1UEBhMCREUxEDAOBgNVBAgMB0hhbWJ1cmcxFDASBgNVBAoMC2hhdy1oYW1i
dXJnMQwwCgYDVQQLDANTVlMxFzAVBgNVBAMMDlN1Yi1DQS0yNC1Vc2VyMIICIjAN
BgkqhkiG9w0BAQEFAAOCAg8AMIICCgKCAgEA6LsdA1MCQJCYN4peafdhScE27cI6
6tkX6lBHbRglhVN05fuE4kM2bVBYIPp9u1OvqWHmZKsVNJNnZD6DEsAn1XJ+Z8XP
/5nPY562s+V5tDju5hzdLFeKkncX3y+MoptYHioAq+1JPJguphR6hMgnrqC1LOXm
J3ysBd3hANAk/KuGtifTuNSZZjrVMu441X9/zLbg9hqMNldsKrSDGKraLv6PvGtz
Z7qwNk8y6Oeflz1NQl6qbBObIY9TeFDYeDoeZiR41axkMym4Bwj7gd62iwnyAFGr
ALWPGK2e8YRc8LlUcGdJGhtPIj0aONCUjnoFBTiGtQnyxPmGbVaP+wC8WLhUQXgH
ufCxcCuCf77C6hiR8DJSS5arTEiESEPF+UmO1B8Y52MnSR8pXwn88Qhjuv8BawqV
FVAQWlWdsap3/XL7jD0mLYXsXUKCaoo57gnQc+fnGk0l4/ftCuO7kZxjyCtnfh8C
suoPzV1TmNBd7crnR6olP85HIAIZ9PU79xkT8/eVGrTFT4+LUeCeLscmDLDb2tk/
EvL8A9nInoDsvace2XErx337uZ3LWS5L2z6J53mRc+7ZjAQE/PcWhMCy/VLxNZw2
fUPLAhPtuwC5jtkUL2QAByg2UY+B7iIEIGDRYbzG/NnujkqbSr8A5nCoAfkoEiPl
EhfR6BnnuL5mB/ECAwEAAaOBsDCBrTAOBgNVHQ8BAf8EBAMCAQYwEgYDVR0TAQH/
BAgwBgEB/wIBADAdBgNVHQ4EFgQUM68W8GrJ+JMenQ0KLO00JKbnF4swHwYDVR0j
BBgwFoAUpnjK6riax+Scq8IdAPbXBzSUx+0wRwYDVR0fBEAwPjA8oDqgOIY2aHR0
cDovL3N2czI0LmZ1bC5pbmZvcm1hdGlrLmhhdy1oYW1idXJnLmRlL3Jvb3QtY2Eu
Y3JsMA0GCSqGSIb3DQEBCwUAA4ICAQBghyQdanNr74yLIfqGDpe8sTgv/l7y1KlD
45qvhZSAiCX8dIg/vixxtcdd/rblc9/WXqAOvnBWhJq/24sjoiyMTDZ0KDjDePpF
eBd28CKJKk7zgIZH+v654S6TQPPI7Qu1F8aMhfCAMb64v8PNJyg6Pbvc/+7n5rpQ
28jybBAIjPYoMJp5KiImyfxz+1aWZ4/TQorzMha0QiDQm0rrpXMuTk2UdOiWLBfu
StVM7dxxpwt9hz0soPuTPqP0YobNtWXGAXC7ezeIpWo/Ua+offhjLGhpcen94kk8
6SurAte2xfFuziNXL7q7pppZ2Bfg5sn+0+t9zUg2kVK6AGWom8BC47EF9Z52UEhe
J+PvmMkgLgAKQH/cAFr41pT4oWoARbx0oxhLbiR3Gov/nxdKMuvlcfv7AsdvNkCE
76pqvKWiHIYmn3zutpSzc2m11d0vSr27wsKoGdS7dZxc5dlSXZprRJ73xUv0MQ1e
DWkCGuGs+4X2E3MPwrAC+mXMnJAgfHHu5QID566Q2hAYkRg7aFp7O89HmCG6+BoC
7Nn9/oSILJIWDoPRysOUtXoddmrAD2Ilx+mHhT81YzNB6MYMZR/NdVTVa3BObVcr
riSknWsaqp3cOyMfDiKDuNebYqkZ+/7JpME95+K4aKgdo6I90c3yFs6c93Ne+md5
mTd/OaH2CA==
-----END CERTIFICATE-----
