Certificate:
    Data:
        Version: 3 (0x2)
        Serial Number: 2 (0x2)
        Signature Algorithm: sha256WithRSAEncryption
        Issuer: C=DE, ST=Hamburg, O=haw-hamburg, OU=SVS, CN=Sub-CA-24-User
        Validity
            Not Before: Jul  2 19:36:35 2022 GMT
            Not After : Jun 29 19:36:35 2023 GMT
        Subject: C=DE, ST=Hamburg, L=Hamburg, O=haw-hamburg, OU=SVS, OU=24, CN=Joao Filipe Silva de Almeida
        Subject Public Key Info:
            Public Key Algorithm: rsaEncryption
                RSA Public-Key: (4096 bit)
                Modulus:
                    00:9b:cc:cd:c9:1f:33:df:df:a6:8b:ed:61:30:8d:
                    a6:73:50:51:25:c8:c7:58:74:f9:0a:a2:ad:bf:6c:
                    40:ff:2a:e5:ee:88:c6:73:22:23:7a:57:18:49:44:
                    72:2a:aa:ad:63:66:e4:e0:6f:d9:70:64:49:e8:72:
                    50:21:bf:9f:bd:3f:34:70:3e:69:3e:fc:52:6f:9d:
                    69:4c:6a:b0:81:d3:c8:47:b7:c3:8b:6d:47:b0:b1:
                    58:d0:65:9b:e5:b7:42:9a:8b:99:d3:29:3c:26:11:
                    c8:db:63:71:86:b4:8f:31:99:b1:5d:a0:24:b7:c2:
                    1b:ef:f5:0c:72:d2:fe:69:da:12:2b:27:ce:01:bf:
                    3a:df:ef:a0:9b:e1:f3:02:9d:a9:49:0d:95:9c:29:
                    0b:2e:5a:93:9b:7e:2d:7b:65:0d:e6:35:8c:d9:fd:
                    38:38:ae:f9:dd:6d:4e:b3:f3:ef:61:61:7e:5a:b0:
                    fa:85:61:84:ba:b6:b8:fb:ca:a5:6f:0f:d8:4e:87:
                    fe:04:ab:30:30:27:16:d0:c3:c7:ab:94:4f:a0:0a:
                    1a:ba:21:5e:cd:a3:2b:65:f4:a6:f3:97:5b:91:3a:
                    7e:93:41:f0:ae:a4:0e:a3:77:fc:7d:1f:b5:f5:10:
                    f5:43:13:f2:8c:0b:96:e4:d4:93:7b:fc:e5:b4:7b:
                    90:ed:3f:4f:ae:f9:36:21:91:2f:c2:8d:d5:38:df:
                    99:38:3a:6b:10:6b:8b:4a:dc:b1:c4:43:1f:fe:a2:
                    ee:83:de:54:ce:7f:36:28:93:2a:aa:30:bd:24:88:
                    7e:d3:54:cb:1d:22:9a:71:a6:af:eb:7c:47:01:3f:
                    a7:3c:f2:86:d8:d2:8c:61:44:a2:bb:ae:1e:35:06:
                    44:9a:8e:b8:25:73:28:4c:22:c0:fd:07:70:e1:9d:
                    75:a2:e8:bd:c5:a9:48:3a:00:3d:0a:8e:7a:06:26:
                    6e:d1:66:7d:d1:1c:01:81:66:e5:b5:dc:05:0c:14:
                    72:7b:47:99:c3:43:5c:83:e7:31:73:53:71:b3:0e:
                    68:d6:74:f1:6b:fe:64:a0:f4:77:37:1c:14:3e:7e:
                    4e:71:a6:5d:a2:38:a5:6e:1a:a6:d8:ca:1b:d7:84:
                    37:67:0e:13:01:4c:2b:eb:e3:04:7c:81:8b:05:8b:
                    f6:5d:78:a9:6f:c7:75:5d:5a:eb:97:4d:47:67:09:
                    f1:34:7c:6c:82:bb:77:e6:7b:47:1b:df:fe:e5:e7:
                    86:5d:96:29:39:e6:db:62:e7:e5:63:ae:2c:73:ea:
                    4a:cf:87:71:16:08:5f:a8:57:97:bd:80:8b:c7:d6:
                    3b:3c:3b:49:0f:86:c6:2f:e6:39:22:cf:78:7a:b0:
                    70:e5:d7
                Exponent: 65537 (0x10001)
        X509v3 extensions:
            X509v3 Key Usage: critical
                Digital Signature
            X509v3 Basic Constraints: 
                CA:FALSE
            X509v3 Extended Key Usage: 
                TLS Web Client Authentication
            X509v3 Subject Key Identifier: 
                2E:6C:68:79:F0:37:4D:4A:22:A2:FF:82:7D:13:B2:9E:22:CB:25:5E
            X509v3 Authority Key Identifier: 
                keyid:33:AF:16:F0:6A:C9:F8:93:1E:9D:0D:0A:2C:ED:34:24:A6:E7:17:8B

            X509v3 Subject Alternative Name: 
                email:Joao.SilvadeAlmeida@haw-hamburg.de
    Signature Algorithm: sha256WithRSAEncryption
         76:23:c9:e8:d1:a1:0a:10:db:c3:d2:8d:61:02:38:85:93:38:
         8d:81:23:f6:fd:d9:c6:71:b4:6c:bd:fc:df:b4:d8:2e:2e:de:
         07:7a:cc:c5:f4:d9:fb:7e:d0:54:04:12:47:1a:0e:63:26:fa:
         6c:4e:5d:ae:d2:45:86:e7:1c:97:17:1e:27:dd:59:60:de:ec:
         08:3c:eb:1d:f6:19:8e:5f:5b:c5:1f:c4:b4:66:52:b7:07:ef:
         32:c6:2a:ad:8c:f2:43:39:04:3d:89:c0:c2:75:ff:50:37:04:
         59:65:8f:22:ef:a0:07:a2:0c:8f:06:1d:e0:e8:97:6d:26:15:
         34:61:79:f7:ae:0a:1a:57:89:6e:ac:2f:6a:c8:f3:6d:11:14:
         e1:cb:61:2f:44:76:09:c8:c8:06:40:fe:4a:3b:c9:25:7a:64:
         10:11:58:bd:1b:d5:46:df:34:fe:e3:cc:03:0e:db:97:fd:c3:
         32:27:25:55:52:ff:1b:58:8b:cd:66:87:7a:bf:8b:65:c6:46:
         0e:6c:e8:9e:22:ac:c6:fd:a0:ff:53:b7:35:c4:f4:13:6d:fa:
         b6:95:3a:46:04:6c:e1:da:0b:6f:70:a1:77:19:72:b6:7c:75:
         33:ad:57:b9:44:06:fd:df:9f:15:84:5e:89:01:b4:3a:cd:5f:
         97:88:44:33:ff:5e:68:55:f8:8c:b0:a2:e8:a3:5f:77:e2:71:
         fc:15:97:b2:07:af:17:52:ce:02:47:a5:bd:89:fd:4b:bf:f4:
         30:a5:fd:21:80:94:a6:ca:dc:51:f5:1b:33:cb:c0:64:9b:30:
         d5:8d:0d:eb:4f:05:35:9c:41:7c:70:90:06:a7:fb:f0:d6:aa:
         2f:f9:33:d5:97:2f:a0:a5:29:05:ff:4f:0c:b5:bb:40:f8:32:
         4b:e0:8f:91:c5:2c:6c:de:a2:e4:a7:e8:3c:81:7e:92:7e:04:
         3c:16:07:16:0a:22:49:e3:96:2e:67:8e:bc:6d:00:64:79:6d:
         37:ae:a8:71:f7:2f:2d:ff:17:11:a4:67:6f:01:4c:1b:6b:58:
         01:45:ae:72:f9:77:8f:89:95:6c:36:af:ff:05:fe:6f:4f:a3:
         12:ef:09:3c:b3:27:5f:4f:ed:90:3b:e9:75:ce:46:cc:c4:ca:
         86:29:4a:62:1a:f4:99:d8:8a:ce:24:42:cf:00:fa:06:be:07:
         42:3d:a9:92:6f:eb:fb:19:49:62:6e:50:6e:23:51:09:cc:34:
         4d:98:83:01:1a:5a:df:0c:5c:0a:9d:dd:d9:e5:04:2b:8c:07:
         26:c2:68:a5:60:5b:21:55:26:df:2d:f9:a2:f0:01:30:77:6b:
         2e:97:67:e9:c1:15:2d:07
-----BEGIN CERTIFICATE-----
MIIGBDCCA+ygAwIBAgIBAjANBgkqhkiG9w0BAQsFADBcMQswCQYDVQQGEwJERTEQ
MA4GA1UECAwHSGFtYnVyZzEUMBIGA1UECgwLaGF3LWhhbWJ1cmcxDDAKBgNVBAsM
A1NWUzEXMBUGA1UEAwwOU3ViLUNBLTI0LVVzZXIwHhcNMjIwNzAyMTkzNjM1WhcN
MjMwNjI5MTkzNjM1WjCBiTELMAkGA1UEBhMCREUxEDAOBgNVBAgMB0hhbWJ1cmcx
EDAOBgNVBAcMB0hhbWJ1cmcxFDASBgNVBAoMC2hhdy1oYW1idXJnMQwwCgYDVQQL
DANTVlMxCzAJBgNVBAsMAjI0MSUwIwYDVQQDDBxKb2FvIEZpbGlwZSBTaWx2YSBk
ZSBBbG1laWRhMIICIjANBgkqhkiG9w0BAQEFAAOCAg8AMIICCgKCAgEAm8zNyR8z
39+mi+1hMI2mc1BRJcjHWHT5CqKtv2xA/yrl7ojGcyIjelcYSURyKqqtY2bk4G/Z
cGRJ6HJQIb+fvT80cD5pPvxSb51pTGqwgdPIR7fDi21HsLFY0GWb5bdCmouZ0yk8
JhHI22NxhrSPMZmxXaAkt8Ib7/UMctL+adoSKyfOAb863++gm+HzAp2pSQ2VnCkL
LlqTm34te2UN5jWM2f04OK753W1Os/PvYWF+WrD6hWGEura4+8qlbw/YTof+BKsw
MCcW0MPHq5RPoAoauiFezaMrZfSm85dbkTp+k0HwrqQOo3f8fR+19RD1QxPyjAuW
5NSTe/zltHuQ7T9Prvk2IZEvwo3VON+ZODprEGuLStyxxEMf/qLug95Uzn82KJMq
qjC9JIh+01TLHSKacaav63xHAT+nPPKG2NKMYUSiu64eNQZEmo64JXMoTCLA/Qdw
4Z11oui9xalIOgA9Co56BiZu0WZ90RwBgWbltdwFDBRye0eZw0Ncg+cxc1Nxsw5o
1nTxa/5koPR3NxwUPn5OcaZdojilbhqm2Mob14Q3Zw4TAUwr6+MEfIGLBYv2XXip
b8d1XVrrl01HZwnxNHxsgrt35ntHG9/+5eeGXZYpOebbYuflY64sc+pKz4dxFghf
qFeXvYCLx9Y7PDtJD4bGL+Y5Is94erBw5dcCAwEAAaOBojCBnzAOBgNVHQ8BAf8E
BAMCB4AwCQYDVR0TBAIwADATBgNVHSUEDDAKBggrBgEFBQcDAjAdBgNVHQ4EFgQU
LmxoefA3TUoiov+CfROyniLLJV4wHwYDVR0jBBgwFoAUM68W8GrJ+JMenQ0KLO00
JKbnF4swLQYDVR0RBCYwJIEiSm9hby5TaWx2YWRlQWxtZWlkYUBoYXctaGFtYnVy
Zy5kZTANBgkqhkiG9w0BAQsFAAOCAgEAdiPJ6NGhChDbw9KNYQI4hZM4jYEj9v3Z
xnG0bL3837TYLi7eB3rMxfTZ+37QVAQSRxoOYyb6bE5drtJFhucclxceJ91ZYN7s
CDzrHfYZjl9bxR/EtGZStwfvMsYqrYzyQzkEPYnAwnX/UDcEWWWPIu+gB6IMjwYd
4OiXbSYVNGF5964KGleJbqwvasjzbREU4cthL0R2CcjIBkD+SjvJJXpkEBFYvRvV
Rt80/uPMAw7bl/3DMiclVVL/G1iLzWaHer+LZcZGDmzoniKsxv2g/1O3NcT0E236
tpU6RgRs4doLb3Chdxlytnx1M61XuUQG/d+fFYReiQG0Os1fl4hEM/9eaFX4jLCi
6KNfd+Jx/BWXsgevF1LOAkelvYn9S7/0MKX9IYCUpsrcUfUbM8vAZJsw1Y0N608F
NZxBfHCQBqf78NaqL/kz1ZcvoKUpBf9PDLW7QPgyS+CPkcUsbN6i5KfoPIF+kn4E
PBYHFgoiSeOWLmeOvG0AZHltN66ocfcvLf8XEaRnbwFMG2tYAUWucvl3j4mVbDav
/wX+b0+jEu8JPLMnX0/tkDvpdc5GzMTKhilKYhr0mdiKziRCzwD6Br4HQj2pkm/r
+xlJYm5QbiNRCcw0TZiDARpa3wxcCp3d2eUEK4wHJsJopWBbIVUm3y35ovABMHdr
Lpdn6cEVLQc=
-----END CERTIFICATE-----
