Certificate:
    Data:
        Version: 3 (0x2)
        Serial Number: 1 (0x1)
        Signature Algorithm: sha256WithRSAEncryption
        Issuer: C=DE, ST=Hamburg, O=haw-hamburg, CN=SVS Root CA
        Validity
            Not Before: Jul  2 16:58:16 2022 GMT
            Not After : Dec 31 23:59:59 2030 GMT
        Subject: C=DE, ST=Hamburg, O=haw-hamburg, CN=SVS Root CA
        Subject Public Key Info:
            Public Key Algorithm: rsaEncryption
                RSA Public-Key: (4096 bit)
                Modulus:
                    00:be:9e:90:ec:be:b8:62:f5:65:ac:63:d7:45:12:
                    1a:5b:4f:e8:4b:9f:bd:10:a0:7e:d2:f6:69:67:ef:
                    df:04:3b:8c:79:31:59:c9:f1:53:91:44:dc:63:13:
                    e4:8a:66:d4:37:33:b9:52:ab:c5:42:87:dd:27:59:
                    65:68:91:4a:ab:79:58:8c:a2:a9:57:07:a2:c3:6e:
                    c6:24:3e:97:2d:6c:70:88:c1:66:2e:f9:ec:00:19:
                    5f:4c:c1:9c:84:a9:ac:b8:3f:96:4c:34:22:01:bb:
                    da:da:61:d8:a5:30:bd:7b:63:86:c8:d7:26:f9:72:
                    d2:ed:87:7b:5f:6c:a9:13:da:82:57:d9:dd:c6:66:
                    01:ce:9d:e5:6a:2f:f9:ac:62:e9:7c:b9:7d:1f:ca:
                    da:3c:ba:d8:9e:41:19:be:1d:e0:f9:42:aa:1a:d6:
                    32:1d:75:6e:33:85:bd:8c:dc:65:a8:7a:f1:2a:c4:
                    df:8d:f2:c8:39:96:e8:75:83:9b:86:88:a6:3d:f6:
                    c3:dd:db:e0:9e:ca:c0:4b:cc:e3:04:47:f8:0e:ff:
                    88:2b:5f:55:3c:dd:4c:d5:62:c5:1d:71:ab:d2:5c:
                    68:26:82:61:7a:b7:6f:55:ee:9d:bb:4f:25:54:f0:
                    f5:90:f1:92:89:3e:9d:e2:07:69:76:9b:93:6e:b9:
                    5b:bf:8f:21:8f:a5:8e:e2:5b:c9:df:d7:e0:c7:9d:
                    fa:d9:44:f2:c2:dc:32:0a:94:73:a1:07:60:2d:d0:
                    94:f5:42:a6:fa:be:15:b0:d4:72:68:d2:e1:20:ea:
                    9c:ce:b6:51:c1:21:54:a0:e0:4e:86:5f:12:51:98:
                    00:66:bb:7b:65:c6:67:64:a1:fa:51:10:58:b8:62:
                    e1:c5:3f:38:67:a2:29:dc:34:8b:7c:12:27:65:4c:
                    32:f5:cd:b2:fa:51:4d:51:b7:74:a1:d1:59:fb:08:
                    d2:fa:ee:4a:07:6d:43:23:b6:17:22:6a:ee:3c:b0:
                    56:ec:ca:d5:91:cf:8e:b1:ea:55:a4:26:07:d4:55:
                    63:a6:43:6c:de:8d:a6:0f:62:4a:4f:39:eb:e7:7f:
                    16:06:5e:37:65:ed:cc:df:ea:96:4b:6c:ee:a9:a2:
                    65:54:05:73:88:95:90:5e:ab:60:42:0d:a0:7a:cd:
                    55:12:eb:c2:e8:08:e6:95:6d:28:d2:19:fb:6d:27:
                    7d:b6:91:38:8a:5c:b0:af:e6:cb:bc:50:8d:4c:4d:
                    9f:0a:46:3a:a7:09:ca:13:9b:58:63:32:8e:32:ed:
                    bd:66:70:22:f3:a3:30:0f:92:8c:b3:5f:9a:3d:40:
                    9b:55:95:e8:ac:da:4a:14:6e:07:7e:f3:53:59:df:
                    57:f5:87
                Exponent: 65537 (0x10001)
        X509v3 extensions:
            X509v3 Key Usage: critical
                Certificate Sign, CRL Sign
            X509v3 Basic Constraints: critical
                CA:TRUE
            X509v3 Subject Key Identifier: 
                A6:78:CA:EA:B8:9A:C7:E4:9C:AB:C2:1D:00:F6:D7:07:34:94:C7:ED
            X509v3 Authority Key Identifier: 
                keyid:A6:78:CA:EA:B8:9A:C7:E4:9C:AB:C2:1D:00:F6:D7:07:34:94:C7:ED

    Signature Algorithm: sha256WithRSAEncryption
         7c:b1:05:43:ef:a8:ed:6d:2e:34:d2:ff:ec:16:6e:17:4b:6e:
         f2:7f:51:39:e9:89:9f:03:95:e2:d8:7e:8c:fb:9c:84:3f:0f:
         38:dd:d5:8a:98:76:fa:f2:27:41:0f:d1:9f:16:1a:34:28:f1:
         2f:b2:71:bf:d5:0a:1b:ba:9c:fe:ca:ee:4e:5b:9f:9d:0e:b2:
         9a:5e:7d:41:cf:90:c9:ed:ab:ec:22:a1:e4:3a:14:5f:09:f7:
         40:61:18:9d:ed:8e:6e:b0:46:e1:96:be:ef:08:c6:ae:c1:7e:
         1e:32:37:e4:38:8c:7c:03:82:3c:09:20:5b:64:3b:81:d3:9a:
         8a:9c:93:cf:a3:96:25:ed:13:86:3a:c9:9c:cf:67:ea:46:30:
         a2:5d:43:87:0c:cc:2c:6e:c9:b9:c8:9a:a8:ad:6c:90:45:58:
         73:b3:a1:5e:d1:1f:b9:a3:46:a0:a6:b1:6a:ea:cb:76:7e:31:
         0c:84:2d:ef:8d:d8:58:02:dd:94:b3:21:86:55:70:54:d3:ea:
         75:ab:98:f1:57:20:32:ed:58:03:8b:09:49:87:85:1d:20:3d:
         fd:fd:67:35:8d:54:51:92:8f:6d:17:9e:fb:b8:48:86:72:15:
         44:5e:14:80:86:2a:aa:e0:a9:68:c3:67:b7:c1:df:18:12:99:
         d1:34:49:15:ed:da:1a:26:a8:84:11:64:9a:c0:a1:66:1a:1f:
         35:9f:8d:e6:77:ae:42:21:2d:82:74:a2:5d:02:b1:9f:da:68:
         5c:a7:60:7b:fa:68:24:9e:7a:2f:de:f4:de:0b:09:ba:87:55:
         ac:99:c5:d2:7f:2b:09:b2:de:83:ac:ee:7a:43:b6:d3:db:ed:
         3f:ae:0a:54:b1:90:83:45:a9:29:88:6c:cb:f9:41:c7:a3:0c:
         1e:bb:b2:07:49:43:dc:22:da:b8:a6:00:e7:25:94:23:ed:a7:
         7c:92:47:7e:ef:f3:83:3d:88:70:b9:25:86:2f:ef:a7:eb:ce:
         dc:94:d2:dd:a7:a1:70:17:83:f5:a4:c8:66:0e:0d:4f:f9:1a:
         71:06:2c:52:94:9e:25:67:69:cc:db:d0:d2:b3:0f:65:96:e8:
         fa:97:41:89:bb:f0:14:e2:74:08:a6:7c:82:44:01:35:87:ef:
         64:65:83:59:cb:4f:74:5f:76:66:12:ca:26:0d:b6:c0:63:cd:
         b8:ff:b0:93:fd:40:23:e4:29:4a:8d:4f:82:77:c8:90:08:ff:
         d9:f7:65:23:9e:1f:c7:ba:39:fd:2c:70:22:62:3f:c9:2a:60:
         6a:98:31:ed:a8:0e:b6:48:ce:ac:f1:81:d1:77:4b:c5:44:29:
         52:a5:f3:e4:43:b9:40:ed
-----BEGIN CERTIFICATE-----
MIIFdDCCA1ygAwIBAgIBATANBgkqhkiG9w0BAQsFADBLMQswCQYDVQQGEwJERTEQ
MA4GA1UECAwHSGFtYnVyZzEUMBIGA1UECgwLaGF3LWhhbWJ1cmcxFDASBgNVBAMM
C1NWUyBSb290IENBMB4XDTIyMDcwMjE2NTgxNloXDTMwMTIzMTIzNTk1OVowSzEL
MAkGA1UEBhMCREUxEDAOBgNVBAgMB0hhbWJ1cmcxFDASBgNVBAoMC2hhdy1oYW1i
dXJnMRQwEgYDVQQDDAtTVlMgUm9vdCBDQTCCAiIwDQYJKoZIhvcNAQEBBQADggIP
ADCCAgoCggIBAL6ekOy+uGL1Zaxj10USGltP6EufvRCgftL2aWfv3wQ7jHkxWcnx
U5FE3GMT5Ipm1DczuVKrxUKH3SdZZWiRSqt5WIyiqVcHosNuxiQ+ly1scIjBZi75
7AAZX0zBnISprLg/lkw0IgG72tph2KUwvXtjhsjXJvly0u2He19sqRPaglfZ3cZm
Ac6d5Wov+axi6Xy5fR/K2jy62J5BGb4d4PlCqhrWMh11bjOFvYzcZah68SrE343y
yDmW6HWDm4aIpj32w93b4J7KwEvM4wRH+A7/iCtfVTzdTNVixR1xq9JcaCaCYXq3
b1XunbtPJVTw9ZDxkok+neIHaXabk265W7+PIY+ljuJbyd/X4Med+tlE8sLcMgqU
c6EHYC3QlPVCpvq+FbDUcmjS4SDqnM62UcEhVKDgToZfElGYAGa7e2XGZ2Sh+lEQ
WLhi4cU/OGeiKdw0i3wSJ2VMMvXNsvpRTVG3dKHRWfsI0vruSgdtQyO2FyJq7jyw
VuzK1ZHPjrHqVaQmB9RVY6ZDbN6Npg9iSk856+d/FgZeN2XtzN/qlkts7qmiZVQF
c4iVkF6rYEINoHrNVRLrwugI5pVtKNIZ+20nfbaROIpcsK/my7xQjUxNnwpGOqcJ
yhObWGMyjjLtvWZwIvOjMA+SjLNfmj1Am1WV6KzaShRuB37zU1nfV/WHAgMBAAGj
YzBhMA4GA1UdDwEB/wQEAwIBBjAPBgNVHRMBAf8EBTADAQH/MB0GA1UdDgQWBBSm
eMrquJrH5Jyrwh0A9tcHNJTH7TAfBgNVHSMEGDAWgBSmeMrquJrH5Jyrwh0A9tcH
NJTH7TANBgkqhkiG9w0BAQsFAAOCAgEAfLEFQ++o7W0uNNL/7BZuF0tu8n9ROemJ
nwOV4th+jPuchD8PON3Viph2+vInQQ/RnxYaNCjxL7Jxv9UKG7qc/sruTlufnQ6y
ml59Qc+Qye2r7CKh5DoUXwn3QGEYne2ObrBG4Za+7wjGrsF+HjI35DiMfAOCPAkg
W2Q7gdOaipyTz6OWJe0ThjrJnM9n6kYwol1DhwzMLG7JuciaqK1skEVYc7OhXtEf
uaNGoKaxaurLdn4xDIQt743YWALdlLMhhlVwVNPqdauY8VcgMu1YA4sJSYeFHSA9
/f1nNY1UUZKPbRee+7hIhnIVRF4UgIYqquCpaMNnt8HfGBKZ0TRJFe3aGiaohBFk
msChZhofNZ+N5neuQiEtgnSiXQKxn9poXKdge/poJJ56L9703gsJuodVrJnF0n8r
CbLeg6zuekO209vtP64KVLGQg0WpKYhsy/lBx6MMHruyB0lD3CLauKYA5yWUI+2n
fJJHfu/zgz2IcLklhi/vp+vO3JTS3aehcBeD9aTIZg4NT/kacQYsUpSeJWdpzNvQ
0rMPZZbo+pdBibvwFOJ0CKZ8gkQBNYfvZGWDWctPdF92ZhLKJg22wGPNuP+wk/1A
I+QpSo1PgnfIkAj/2fdlI54fx7o5/SxwImI/ySpgapgx7agOtkjOrPGB0XdLxUQp
UqXz5EO5QO0=
-----END CERTIFICATE-----
