Certificate:
    Data:
        Version: 3 (0x2)
        Serial Number: 3 (0x3)
        Signature Algorithm: sha256WithRSAEncryption
        Issuer: C=DE, ST=Hamburg, O=haw-hamburg, OU=SVS, CN=Sub-CA-24-User
        Validity
            Not Before: Jul  3 19:21:50 2022 GMT
            Not After : Jun 30 19:21:50 2023 GMT
        Subject: C=DE, ST=Hamburg, L=Hamburg, O=haw-hamburg, OU=SVS, OU=24, CN=Joao Filipe Silva de Almeida
        Subject Public Key Info:
            Public Key Algorithm: rsaEncryption
                RSA Public-Key: (4096 bit)
                Modulus:
                    00:e3:dc:b6:37:a3:65:a1:13:e6:2f:85:4b:5f:53:
                    21:79:40:1c:f1:93:8d:8d:2e:06:1c:6a:90:68:43:
                    00:b7:d9:f3:e7:49:fc:f8:d3:78:5b:5e:5d:72:e1:
                    6f:22:4f:df:d3:bd:a5:2e:2c:ce:51:92:d9:0f:15:
                    b1:59:63:91:1c:d2:7b:3f:12:73:1b:de:eb:ba:77:
                    e6:67:02:7d:bd:4a:6e:2f:18:f0:6a:92:e3:c7:9b:
                    b4:ef:89:49:2d:2e:90:94:53:67:98:41:26:c1:84:
                    c3:04:22:07:13:d6:28:82:74:0c:41:c9:9a:24:98:
                    d0:87:3a:94:85:26:72:01:7a:d1:95:23:9e:85:06:
                    9e:05:87:74:bb:58:2e:a7:1f:93:25:40:52:d3:58:
                    aa:ff:46:a2:d4:49:ff:fb:ff:24:0c:64:ed:68:57:
                    fc:53:fe:97:bb:17:83:65:6f:fc:2c:02:59:fd:fc:
                    00:0c:e9:6e:e1:92:f8:ea:97:d1:12:e2:38:b7:86:
                    37:3e:59:20:c7:32:e0:6e:cc:6f:7c:a6:3a:6b:c1:
                    48:8a:a7:b8:00:aa:54:32:6f:d5:18:7c:47:27:b1:
                    0c:16:33:a8:55:2e:bc:cb:2f:cb:5b:fe:66:db:ad:
                    a8:49:d5:d0:f6:e9:c6:08:e3:9f:0b:6d:ee:dd:1d:
                    d7:51:9c:8c:9f:99:73:34:d4:b2:d1:cb:4b:00:af:
                    cf:7e:bb:25:bb:cc:cc:ed:1a:3f:b5:bf:79:5f:bc:
                    61:5d:a4:06:70:00:21:82:ff:36:c1:f1:21:92:15:
                    43:04:1d:02:de:58:3b:10:71:8a:4e:39:cb:5d:f0:
                    f0:e3:51:87:03:58:2b:fe:1f:c6:ca:65:cd:17:aa:
                    58:06:bb:34:14:13:40:40:5a:1b:f9:ca:9e:8f:e6:
                    79:21:b5:f8:b8:fc:1b:6c:6b:4d:68:f6:f9:3a:65:
                    3a:6b:8b:45:bd:e8:47:b5:79:13:5f:98:80:e0:6b:
                    74:ed:3d:95:9b:81:4c:d9:4d:95:a6:7d:bc:bd:c9:
                    04:68:46:0b:18:fb:97:f3:9d:b1:7d:80:e0:d1:84:
                    ff:c7:02:04:8c:c5:7f:ec:c5:22:37:93:a6:53:90:
                    b4:86:b5:95:c1:63:b5:e0:4a:d2:36:fd:21:18:07:
                    a0:da:69:41:e2:dd:29:4d:e3:c3:fe:50:62:79:0e:
                    77:02:1f:74:41:6d:d5:0a:af:20:3e:5c:0b:97:ce:
                    24:5b:e9:dc:1a:f7:d7:e5:7a:ce:68:06:42:fa:ad:
                    46:2b:d8:b5:46:59:4e:db:48:58:f4:6c:ca:6a:f1:
                    1a:8a:52:e0:c4:2f:55:3f:28:0e:66:35:b8:bd:96:
                    fc:56:0f
                Exponent: 65537 (0x10001)
        X509v3 extensions:
            X509v3 Key Usage: critical
                Digital Signature
            X509v3 Basic Constraints: 
                CA:FALSE
            X509v3 Extended Key Usage: 
                TLS Web Client Authentication
            X509v3 Subject Key Identifier: 
                48:E0:08:C2:E3:8B:6E:83:3D:A1:12:19:BC:38:9E:45:4D:83:D7:9D
            X509v3 Authority Key Identifier: 
                keyid:33:AF:16:F0:6A:C9:F8:93:1E:9D:0D:0A:2C:ED:34:24:A6:E7:17:8B

            X509v3 Subject Alternative Name: 
                email:Joao.SilvadeAlmeida@haw-hamburg.de
    Signature Algorithm: sha256WithRSAEncryption
         8b:73:27:cb:0b:2a:29:09:eb:10:bb:25:76:cc:c7:f4:0b:32:
         ec:03:77:5e:2c:05:5d:cf:72:82:17:99:1d:2e:f4:c7:0b:5a:
         26:8e:ef:c6:50:39:41:a8:ae:ee:88:6a:d2:2c:e7:e2:a3:fc:
         f8:dc:41:5e:cb:ee:51:8d:32:b1:a1:3d:30:2d:91:2e:e2:c5:
         8f:bb:ff:64:e2:80:a2:4d:80:33:3e:e3:a3:d6:ac:08:29:34:
         db:26:28:fd:09:70:a2:be:9d:04:1a:41:cc:ea:a1:c2:2f:0f:
         00:f7:e3:51:ba:a3:62:8a:e0:f7:7a:b1:62:20:1e:51:6a:1a:
         22:05:f1:bf:36:dc:22:8e:ed:3b:29:09:f9:97:3e:e2:f8:3c:
         9b:74:3e:10:73:5b:16:b3:fc:53:7c:4a:72:05:6a:39:95:f4:
         86:2f:0e:15:0d:54:13:73:3b:b2:00:bc:7a:37:36:eb:e5:da:
         20:45:cb:95:ad:65:5c:0d:f2:ea:34:10:34:44:a1:0f:99:e8:
         5a:1c:a4:17:0c:c4:d2:fe:69:b5:ef:66:37:58:40:10:6c:08:
         87:18:89:8d:25:e5:2a:a7:1b:40:55:0f:34:a2:48:09:e7:fb:
         29:a0:d3:89:16:3a:1c:f7:d0:48:b9:6c:b0:33:72:6f:00:32:
         db:ca:31:3d:9f:93:3a:81:b8:6b:38:e9:a7:46:1f:b5:e7:7b:
         e2:e9:f7:1b:7f:16:ce:13:10:f0:df:12:42:42:ce:21:10:24:
         21:aa:95:55:b1:04:a0:77:0b:ee:89:17:8e:8e:92:c4:1d:8c:
         62:a8:33:22:18:3f:8c:3f:ed:b2:97:d9:98:02:86:3d:59:33:
         a1:d2:5d:e0:96:c5:a9:38:03:74:29:48:fa:9a:f3:40:c1:80:
         5f:8d:ef:5e:d2:19:a2:69:73:8a:fa:d2:d1:5c:12:fa:af:64:
         41:97:41:49:2f:93:6c:47:2c:42:c3:cd:cf:e9:77:7d:30:89:
         bc:ea:15:af:ca:4c:f7:92:98:31:4f:bf:7d:ce:e2:11:97:52:
         65:d2:67:58:eb:2c:ca:1b:16:8f:a5:3b:cd:9b:e5:96:df:91:
         fe:36:6b:4b:56:92:ce:2f:1a:85:c0:cf:5b:1e:37:fe:9b:0e:
         6a:0f:df:b6:ed:b2:a4:6a:38:05:66:0f:ce:c4:de:86:a5:b4:
         65:18:d2:49:58:85:b0:df:d4:5e:7b:8f:58:0f:96:02:20:9b:
         19:e7:b9:67:7a:e8:e3:72:4c:a3:62:a1:f4:18:2b:54:3e:0b:
         3f:55:d6:d1:ce:66:b9:14:43:94:ad:97:d6:d7:c5:1b:1e:d3:
         ac:8a:66:cf:26:3c:36:87
-----BEGIN CERTIFICATE-----
MIIGBDCCA+ygAwIBAgIBAzANBgkqhkiG9w0BAQsFADBcMQswCQYDVQQGEwJERTEQ
MA4GA1UECAwHSGFtYnVyZzEUMBIGA1UECgwLaGF3LWhhbWJ1cmcxDDAKBgNVBAsM
A1NWUzEXMBUGA1UEAwwOU3ViLUNBLTI0LVVzZXIwHhcNMjIwNzAzMTkyMTUwWhcN
MjMwNjMwMTkyMTUwWjCBiTELMAkGA1UEBhMCREUxEDAOBgNVBAgMB0hhbWJ1cmcx
EDAOBgNVBAcMB0hhbWJ1cmcxFDASBgNVBAoMC2hhdy1oYW1idXJnMQwwCgYDVQQL
DANTVlMxCzAJBgNVBAsMAjI0MSUwIwYDVQQDDBxKb2FvIEZpbGlwZSBTaWx2YSBk
ZSBBbG1laWRhMIICIjANBgkqhkiG9w0BAQEFAAOCAg8AMIICCgKCAgEA49y2N6Nl
oRPmL4VLX1MheUAc8ZONjS4GHGqQaEMAt9nz50n8+NN4W15dcuFvIk/f072lLizO
UZLZDxWxWWORHNJ7PxJzG97runfmZwJ9vUpuLxjwapLjx5u074lJLS6QlFNnmEEm
wYTDBCIHE9YognQMQcmaJJjQhzqUhSZyAXrRlSOehQaeBYd0u1gupx+TJUBS01iq
/0ai1En/+/8kDGTtaFf8U/6XuxeDZW/8LAJZ/fwADOlu4ZL46pfREuI4t4Y3Plkg
xzLgbsxvfKY6a8FIiqe4AKpUMm/VGHxHJ7EMFjOoVS68yy/LW/5m262oSdXQ9unG
COOfC23u3R3XUZyMn5lzNNSy0ctLAK/Pfrslu8zM7Ro/tb95X7xhXaQGcAAhgv82
wfEhkhVDBB0C3lg7EHGKTjnLXfDw41GHA1gr/h/GymXNF6pYBrs0FBNAQFob+cqe
j+Z5IbX4uPwbbGtNaPb5OmU6a4tFvehHtXkTX5iA4Gt07T2Vm4FM2U2Vpn28vckE
aEYLGPuX852xfYDg0YT/xwIEjMV/7MUiN5OmU5C0hrWVwWO14ErSNv0hGAeg2mlB
4t0pTePD/lBieQ53Ah90QW3VCq8gPlwLl84kW+ncGvfX5XrOaAZC+q1GK9i1RllO
20hY9GzKavEailLgxC9VPygOZjW4vZb8Vg8CAwEAAaOBojCBnzAOBgNVHQ8BAf8E
BAMCB4AwCQYDVR0TBAIwADATBgNVHSUEDDAKBggrBgEFBQcDAjAdBgNVHQ4EFgQU
SOAIwuOLboM9oRIZvDieRU2D150wHwYDVR0jBBgwFoAUM68W8GrJ+JMenQ0KLO00
JKbnF4swLQYDVR0RBCYwJIEiSm9hby5TaWx2YWRlQWxtZWlkYUBoYXctaGFtYnVy
Zy5kZTANBgkqhkiG9w0BAQsFAAOCAgEAi3MnywsqKQnrELsldszH9Asy7AN3XiwF
Xc9ygheZHS70xwtaJo7vxlA5Qaiu7ohq0izn4qP8+NxBXsvuUY0ysaE9MC2RLuLF
j7v/ZOKAok2AMz7jo9asCCk02yYo/Qlwor6dBBpBzOqhwi8PAPfjUbqjYorg93qx
YiAeUWoaIgXxvzbcIo7tOykJ+Zc+4vg8m3Q+EHNbFrP8U3xKcgVqOZX0hi8OFQ1U
E3M7sgC8ejc26+XaIEXLla1lXA3y6jQQNEShD5noWhykFwzE0v5pte9mN1hAEGwI
hxiJjSXlKqcbQFUPNKJICef7KaDTiRY6HPfQSLlssDNybwAy28oxPZ+TOoG4azjp
p0Yfted74un3G38WzhMQ8N8SQkLOIRAkIaqVVbEEoHcL7okXjo6SxB2MYqgzIhg/
jD/tspfZmAKGPVkzodJd4JbFqTgDdClI+przQMGAX43vXtIZomlzivrS0VwS+q9k
QZdBSS+TbEcsQsPNz+l3fTCJvOoVr8pM95KYMU+/fc7iEZdSZdJnWOssyhsWj6U7
zZvllt+R/jZrS1aSzi8ahcDPWx43/psOag/ftu2ypGo4BWYPzsTehqW0ZRjSSViF
sN/UXnuPWA+WAiCbGee5Z3ro43JMo2Kh9BgrVD4LP1XW0c5muRRDlK2X1tfFGx7T
rIpmzyY8Noc=
-----END CERTIFICATE-----
