Certificate:
    Data:
        Version: 3 (0x2)
        Serial Number: 4 (0x4)
        Signature Algorithm: sha256WithRSAEncryption
        Issuer: C=DE, ST=Hamburg, O=haw-hamburg, OU=SVS, CN=Sub-CA-24-User
        Validity
            Not Before: Jul  3 19:29:56 2022 GMT
            Not After : Jun 30 19:29:56 2023 GMT
        Subject: C=DE, ST=Hamburg, L=Hamburg, O=haw-hamburg, OU=SVS, OU=24, CN=Joao Filipe Silva de Almeida
        Subject Public Key Info:
            Public Key Algorithm: rsaEncryption
                RSA Public-Key: (4096 bit)
                Modulus:
                    00:e3:dc:b6:37:a3:65:a1:13:e6:2f:85:4b:5f:53:
                    21:79:40:1c:f1:93:8d:8d:2e:06:1c:6a:90:68:43:
                    00:b7:d9:f3:e7:49:fc:f8:d3:78:5b:5e:5d:72:e1:
                    6f:22:4f:df:d3:bd:a5:2e:2c:ce:51:92:d9:0f:15:
                    b1:59:63:91:1c:d2:7b:3f:12:73:1b:de:eb:ba:77:
                    e6:67:02:7d:bd:4a:6e:2f:18:f0:6a:92:e3:c7:9b:
                    b4:ef:89:49:2d:2e:90:94:53:67:98:41:26:c1:84:
                    c3:04:22:07:13:d6:28:82:74:0c:41:c9:9a:24:98:
                    d0:87:3a:94:85:26:72:01:7a:d1:95:23:9e:85:06:
                    9e:05:87:74:bb:58:2e:a7:1f:93:25:40:52:d3:58:
                    aa:ff:46:a2:d4:49:ff:fb:ff:24:0c:64:ed:68:57:
                    fc:53:fe:97:bb:17:83:65:6f:fc:2c:02:59:fd:fc:
                    00:0c:e9:6e:e1:92:f8:ea:97:d1:12:e2:38:b7:86:
                    37:3e:59:20:c7:32:e0:6e:cc:6f:7c:a6:3a:6b:c1:
                    48:8a:a7:b8:00:aa:54:32:6f:d5:18:7c:47:27:b1:
                    0c:16:33:a8:55:2e:bc:cb:2f:cb:5b:fe:66:db:ad:
                    a8:49:d5:d0:f6:e9:c6:08:e3:9f:0b:6d:ee:dd:1d:
                    d7:51:9c:8c:9f:99:73:34:d4:b2:d1:cb:4b:00:af:
                    cf:7e:bb:25:bb:cc:cc:ed:1a:3f:b5:bf:79:5f:bc:
                    61:5d:a4:06:70:00:21:82:ff:36:c1:f1:21:92:15:
                    43:04:1d:02:de:58:3b:10:71:8a:4e:39:cb:5d:f0:
                    f0:e3:51:87:03:58:2b:fe:1f:c6:ca:65:cd:17:aa:
                    58:06:bb:34:14:13:40:40:5a:1b:f9:ca:9e:8f:e6:
                    79:21:b5:f8:b8:fc:1b:6c:6b:4d:68:f6:f9:3a:65:
                    3a:6b:8b:45:bd:e8:47:b5:79:13:5f:98:80:e0:6b:
                    74:ed:3d:95:9b:81:4c:d9:4d:95:a6:7d:bc:bd:c9:
                    04:68:46:0b:18:fb:97:f3:9d:b1:7d:80:e0:d1:84:
                    ff:c7:02:04:8c:c5:7f:ec:c5:22:37:93:a6:53:90:
                    b4:86:b5:95:c1:63:b5:e0:4a:d2:36:fd:21:18:07:
                    a0:da:69:41:e2:dd:29:4d:e3:c3:fe:50:62:79:0e:
                    77:02:1f:74:41:6d:d5:0a:af:20:3e:5c:0b:97:ce:
                    24:5b:e9:dc:1a:f7:d7:e5:7a:ce:68:06:42:fa:ad:
                    46:2b:d8:b5:46:59:4e:db:48:58:f4:6c:ca:6a:f1:
                    1a:8a:52:e0:c4:2f:55:3f:28:0e:66:35:b8:bd:96:
                    fc:56:0f
                Exponent: 65537 (0x10001)
        X509v3 extensions:
            X509v3 Key Usage: critical
                Digital Signature
            X509v3 Basic Constraints: 
                CA:FALSE
            X509v3 Extended Key Usage: 
                TLS Web Client Authentication
            X509v3 Subject Key Identifier: 
                48:E0:08:C2:E3:8B:6E:83:3D:A1:12:19:BC:38:9E:45:4D:83:D7:9D
            X509v3 Authority Key Identifier: 
                keyid:33:AF:16:F0:6A:C9:F8:93:1E:9D:0D:0A:2C:ED:34:24:A6:E7:17:8B

            X509v3 Subject Alternative Name: 
                email:Joao.SilvadeAlmeida@haw-hamburg.de
    Signature Algorithm: sha256WithRSAEncryption
         c8:7b:da:d2:2c:13:11:0c:f5:db:fd:2b:bc:22:a9:c7:bb:b4:
         2f:20:6f:09:ba:6d:8f:35:88:7e:c4:e0:da:ef:7a:f1:46:89:
         4c:ef:2d:d1:22:bc:24:5c:07:35:f8:c8:f9:0c:36:47:aa:a4:
         39:bf:8b:c9:67:f5:20:f7:a1:00:99:8e:16:eb:6c:6c:e8:5c:
         51:2a:ec:40:0b:a5:de:91:da:df:8d:79:f8:a8:4b:d8:ed:e5:
         ed:bf:80:f1:1e:4f:5f:13:a9:7d:cb:db:6d:ff:cc:d9:e6:53:
         53:19:cc:e4:c0:ec:ce:19:8b:e0:72:b8:3b:82:83:6d:78:60:
         2d:01:6a:72:09:b4:bb:ea:18:4c:35:6c:16:0a:18:51:96:5f:
         fe:cc:6e:4f:af:8e:9e:69:d7:45:01:20:3b:09:5c:13:2f:78:
         65:5a:1b:42:db:d3:e1:6e:92:ff:94:7c:d0:29:1a:79:ed:bc:
         4b:b6:0a:7e:81:6d:18:65:a3:f4:fa:86:d0:63:4f:6e:cd:4f:
         2f:d9:55:7b:f3:db:ef:2a:bf:81:85:6e:20:54:cb:af:fe:3f:
         d2:5f:0c:5c:a0:7d:7b:e1:8a:da:89:6c:bd:90:81:a3:d3:13:
         0f:ec:2c:c1:74:45:13:6d:57:0a:f4:01:a5:36:58:da:bc:3a:
         f1:64:a0:01:3a:37:e1:fc:80:1b:03:01:aa:19:08:7f:55:1a:
         7f:1c:b2:f5:01:4e:b1:21:9a:bf:78:ed:fa:ee:97:f3:52:df:
         d0:a3:7f:1d:ff:97:c8:1b:52:46:2b:9d:55:2e:13:1f:32:41:
         e6:0b:df:95:13:e5:2f:f7:67:0b:49:ed:6e:32:b2:f6:d0:14:
         ee:7e:71:3e:f1:0a:6c:97:6d:03:53:8a:6a:50:7d:87:80:c8:
         93:bd:95:a7:ec:e2:34:db:e7:df:3d:fd:0a:e8:e3:1c:a9:da:
         d1:a5:6f:2d:79:92:f1:2f:c6:9e:be:13:81:e1:fe:39:cd:59:
         1a:4c:63:a8:a0:f8:e0:ba:3e:39:b5:1e:80:9e:dc:cc:08:92:
         ad:31:11:11:58:16:c0:25:dc:3b:e3:c2:14:d5:68:d9:6a:b3:
         e6:d9:07:bd:cf:57:1e:45:7b:08:c8:7c:93:d4:46:db:a8:47:
         2e:1f:56:e4:84:37:47:92:e7:61:e4:9d:2d:43:ed:07:fb:6a:
         e4:c7:37:24:cd:2f:9a:be:20:ac:86:32:ad:74:8e:85:50:e0:
         9d:63:2f:36:93:71:fa:dd:50:84:8a:28:75:16:39:d8:3b:0a:
         69:32:a8:7a:ed:52:f5:e8:b0:74:4a:1a:db:2f:92:0f:4a:55:
         a5:25:58:ef:b5:82:91:f5
-----BEGIN CERTIFICATE-----
MIIGBDCCA+ygAwIBAgIBBDANBgkqhkiG9w0BAQsFADBcMQswCQYDVQQGEwJERTEQ
MA4GA1UECAwHSGFtYnVyZzEUMBIGA1UECgwLaGF3LWhhbWJ1cmcxDDAKBgNVBAsM
A1NWUzEXMBUGA1UEAwwOU3ViLUNBLTI0LVVzZXIwHhcNMjIwNzAzMTkyOTU2WhcN
MjMwNjMwMTkyOTU2WjCBiTELMAkGA1UEBhMCREUxEDAOBgNVBAgMB0hhbWJ1cmcx
EDAOBgNVBAcMB0hhbWJ1cmcxFDASBgNVBAoMC2hhdy1oYW1idXJnMQwwCgYDVQQL
DANTVlMxCzAJBgNVBAsMAjI0MSUwIwYDVQQDDBxKb2FvIEZpbGlwZSBTaWx2YSBk
ZSBBbG1laWRhMIICIjANBgkqhkiG9w0BAQEFAAOCAg8AMIICCgKCAgEA49y2N6Nl
oRPmL4VLX1MheUAc8ZONjS4GHGqQaEMAt9nz50n8+NN4W15dcuFvIk/f072lLizO
UZLZDxWxWWORHNJ7PxJzG97runfmZwJ9vUpuLxjwapLjx5u074lJLS6QlFNnmEEm
wYTDBCIHE9YognQMQcmaJJjQhzqUhSZyAXrRlSOehQaeBYd0u1gupx+TJUBS01iq
/0ai1En/+/8kDGTtaFf8U/6XuxeDZW/8LAJZ/fwADOlu4ZL46pfREuI4t4Y3Plkg
xzLgbsxvfKY6a8FIiqe4AKpUMm/VGHxHJ7EMFjOoVS68yy/LW/5m262oSdXQ9unG
COOfC23u3R3XUZyMn5lzNNSy0ctLAK/Pfrslu8zM7Ro/tb95X7xhXaQGcAAhgv82
wfEhkhVDBB0C3lg7EHGKTjnLXfDw41GHA1gr/h/GymXNF6pYBrs0FBNAQFob+cqe
j+Z5IbX4uPwbbGtNaPb5OmU6a4tFvehHtXkTX5iA4Gt07T2Vm4FM2U2Vpn28vckE
aEYLGPuX852xfYDg0YT/xwIEjMV/7MUiN5OmU5C0hrWVwWO14ErSNv0hGAeg2mlB
4t0pTePD/lBieQ53Ah90QW3VCq8gPlwLl84kW+ncGvfX5XrOaAZC+q1GK9i1RllO
20hY9GzKavEailLgxC9VPygOZjW4vZb8Vg8CAwEAAaOBojCBnzAOBgNVHQ8BAf8E
BAMCB4AwCQYDVR0TBAIwADATBgNVHSUEDDAKBggrBgEFBQcDAjAdBgNVHQ4EFgQU
SOAIwuOLboM9oRIZvDieRU2D150wHwYDVR0jBBgwFoAUM68W8GrJ+JMenQ0KLO00
JKbnF4swLQYDVR0RBCYwJIEiSm9hby5TaWx2YWRlQWxtZWlkYUBoYXctaGFtYnVy
Zy5kZTANBgkqhkiG9w0BAQsFAAOCAgEAyHva0iwTEQz12/0rvCKpx7u0LyBvCbpt
jzWIfsTg2u968UaJTO8t0SK8JFwHNfjI+Qw2R6qkOb+LyWf1IPehAJmOFutsbOhc
USrsQAul3pHa3415+KhL2O3l7b+A8R5PXxOpfcvbbf/M2eZTUxnM5MDszhmL4HK4
O4KDbXhgLQFqcgm0u+oYTDVsFgoYUZZf/sxuT6+OnmnXRQEgOwlcEy94ZVobQtvT
4W6S/5R80Ckaee28S7YKfoFtGGWj9PqG0GNPbs1PL9lVe/Pb7yq/gYVuIFTLr/4/
0l8MXKB9e+GK2olsvZCBo9MTD+wswXRFE21XCvQBpTZY2rw68WSgATo34fyAGwMB
qhkIf1Uafxyy9QFOsSGav3jt+u6X81Lf0KN/Hf+XyBtSRiudVS4THzJB5gvflRPl
L/dnC0ntbjKy9tAU7n5xPvEKbJdtA1OKalB9h4DIk72Vp+ziNNvn3z39CujjHKna
0aVvLXmS8S/Gnr4TgeH+Oc1ZGkxjqKD44Lo+ObUegJ7czAiSrTEREVgWwCXcO+PC
FNVo2Wqz5tkHvc9XHkV7CMh8k9RG26hHLh9W5IQ3R5LnYeSdLUPtB/tq5Mc3JM0v
mr4grIYyrXSOhVDgnWMvNpNx+t1QhIoodRY52DsKaTKoeu1S9eiwdEoa2y+SD0pV
pSVY77WCkfU=
-----END CERTIFICATE-----
