Certificate:
    Data:
        Version: 3 (0x2)
        Serial Number: 5 (0x5)
        Signature Algorithm: sha256WithRSAEncryption
        Issuer: C=DE, ST=Hamburg, O=haw-hamburg, OU=SVS, CN=Sub-CA-24-User
        Validity
            Not Before: Jul  3 19:32:23 2022 GMT
            Not After : Jun 30 19:32:23 2023 GMT
        Subject: C=DE, ST=Hamburg, L=Hamburg, O=haw-hamburg, OU=SVS, OU=24, CN=Asger Krabbe
        Subject Public Key Info:
            Public Key Algorithm: rsaEncryption
                RSA Public-Key: (4096 bit)
                Modulus:
                    00:bd:b2:e5:6a:a8:a7:91:07:17:2b:05:68:1f:15:
                    b7:11:55:c3:23:db:39:ff:53:6a:39:16:c0:3d:84:
                    62:ef:fd:20:d1:02:a8:a9:92:c8:2b:cf:44:36:e8:
                    35:80:2f:ae:1d:a0:f7:35:ab:9f:17:50:00:ab:b3:
                    25:de:e2:04:53:36:ea:f3:a1:12:41:4e:e3:d7:c6:
                    bc:e9:09:41:ec:d5:4e:97:6a:a7:bf:e8:bc:92:ad:
                    35:cd:6b:be:1d:5b:cd:b2:8b:29:93:a7:36:de:f6:
                    5d:0a:06:f2:78:b5:d9:2b:c2:b4:8c:8c:03:bb:c2:
                    16:af:b9:46:7b:3a:01:22:a7:a3:4d:ff:5b:84:34:
                    ae:2a:8b:4b:74:59:1b:47:88:54:10:f2:fa:c2:d9:
                    be:3d:9c:1d:bf:2b:17:27:89:6d:83:50:a8:e6:76:
                    d0:a5:16:85:d8:c9:4c:04:d5:f2:a9:6c:27:d8:b5:
                    72:07:95:57:23:a9:d0:15:e2:a7:70:0c:1f:b3:c9:
                    49:14:8f:21:0e:e1:61:55:cb:6c:50:d1:d9:df:98:
                    10:d4:7c:84:f2:44:d6:5a:e0:f0:81:4a:66:5b:81:
                    a5:ef:e3:15:f5:ec:ec:8d:61:b6:2c:9a:ec:ab:8a:
                    7e:e6:b5:f3:bd:9d:e9:74:0b:b6:a3:02:32:4c:4a:
                    bb:15:28:26:87:2c:6d:e2:1a:fd:85:5a:02:eb:27:
                    9a:0a:2c:93:50:ca:05:36:ad:a0:73:ed:69:ce:84:
                    ce:69:41:7b:8e:74:ec:aa:88:c3:d7:94:2a:f2:74:
                    6d:b3:4a:f9:7a:5c:69:b1:5a:5c:bc:b1:d7:47:cb:
                    33:c2:78:7b:cd:e8:ba:3e:85:b9:de:28:b3:b4:e6:
                    a6:b4:2f:e0:fa:ab:20:18:91:27:60:79:42:fb:08:
                    7d:64:37:b3:b8:55:63:f0:a7:1c:8f:b6:15:bf:5d:
                    ab:dd:42:37:9c:aa:a5:8c:8a:4b:ae:1e:61:c5:60:
                    8a:7e:55:33:23:f4:6c:33:62:b1:71:27:31:6d:7e:
                    38:19:45:ba:98:30:e1:cd:1b:95:4d:ec:a6:cb:f2:
                    25:40:fb:3f:0f:55:9a:94:fa:12:36:09:c1:6e:49:
                    1e:e0:1a:6b:c5:4b:4d:6b:af:a6:6d:a3:36:99:f5:
                    8d:83:4a:3f:79:fc:ab:9d:b8:56:02:03:10:2d:d0:
                    9d:e3:9f:25:ee:71:d8:49:4d:a5:db:a8:97:81:ec:
                    da:03:f3:82:77:1f:3f:08:1d:4a:ed:82:40:91:19:
                    c8:2e:ab:9f:d1:31:b5:a6:a3:b9:58:d2:eb:0b:fd:
                    62:10:d4:76:bf:53:86:5d:f2:5e:a4:eb:73:e8:cd:
                    f9:b0:69
                Exponent: 65537 (0x10001)
        X509v3 extensions:
            X509v3 Key Usage: critical
                Digital Signature
            X509v3 Basic Constraints: 
                CA:FALSE
            X509v3 Extended Key Usage: 
                TLS Web Client Authentication
            X509v3 Subject Key Identifier: 
                03:D7:06:2B:95:0B:83:42:62:38:1F:9C:BC:0A:7F:8D:AA:8F:FD:09
            X509v3 Authority Key Identifier: 
                keyid:33:AF:16:F0:6A:C9:F8:93:1E:9D:0D:0A:2C:ED:34:24:A6:E7:17:8B

            X509v3 Subject Alternative Name: 
                email:Asger.Krabbe@haw-hamburg.de
    Signature Algorithm: sha256WithRSAEncryption
         5f:7d:58:e1:a1:97:99:fb:36:d0:60:78:81:ff:50:93:bc:2f:
         bf:c5:67:ce:de:ce:28:9b:60:48:93:18:5f:34:9f:93:b8:53:
         0e:48:97:6f:ac:7c:57:ee:6c:a7:a6:9c:a8:29:90:ad:a3:42:
         3c:9b:cf:3b:5c:df:a7:04:64:6c:66:08:38:dc:d8:1f:27:d8:
         a1:34:23:85:3d:43:cc:ce:15:68:d2:57:00:d5:6b:87:54:26:
         39:db:47:c6:57:79:2e:36:24:2b:b2:bd:89:51:99:95:76:42:
         c0:3c:bd:2c:75:89:45:56:0c:b6:7d:76:37:6a:f5:34:23:a3:
         0c:29:31:f6:c7:6d:12:0f:51:7a:6f:d2:af:71:af:43:ec:da:
         ae:f1:c8:0e:57:12:2b:bf:9d:b4:a5:a8:0b:66:80:4c:8a:b0:
         25:b8:ad:3c:7c:19:63:a5:f4:aa:0b:1a:49:a0:63:11:c1:92:
         3c:75:c6:89:29:78:16:cb:ca:58:2e:33:5a:c2:09:83:cc:d8:
         5e:fd:2c:d7:d5:68:8f:d4:8e:70:0a:f9:d9:ea:83:22:62:99:
         af:b5:b5:c5:9a:a0:a9:8a:47:df:e6:d0:56:b1:bb:ae:c6:0e:
         84:15:8f:95:45:73:37:66:34:1f:70:45:54:06:72:82:86:e8:
         45:47:9b:43:e6:94:1e:b7:73:40:31:4a:9b:fd:bf:c1:e6:c1:
         67:8d:d6:a6:0a:38:d3:78:dc:5f:9d:89:3f:7c:a6:45:22:5c:
         90:d8:32:3b:ab:f7:74:5d:1d:13:0b:ae:14:fb:60:d4:8b:0a:
         17:f3:7e:ea:89:09:40:78:6d:29:c4:5e:0a:8d:13:72:e7:67:
         ad:1e:b2:3a:03:a7:34:9b:60:7e:c1:dd:b2:c5:aa:79:e8:04:
         28:dd:81:30:c5:c0:b6:f6:04:2d:3f:56:8b:e4:20:d3:d7:07:
         be:57:56:2b:36:ad:49:f8:5e:43:98:66:04:c3:5d:9c:8b:9c:
         19:d2:37:0b:2a:8f:37:a1:1e:21:e0:e6:c2:d6:18:2e:d8:13:
         4f:29:2a:f2:06:fe:7a:4d:28:a1:ae:ea:70:95:70:7c:fe:f4:
         26:77:94:36:d9:f3:2c:1c:8e:d5:9f:59:fc:42:42:23:a2:b3:
         28:43:a7:50:ac:3c:87:b0:f3:3f:ec:15:33:97:62:9b:ab:a9:
         43:bc:69:af:0c:fa:34:b1:b7:7e:b1:03:28:4f:c8:84:eb:dc:
         92:10:50:11:0e:1b:30:73:8f:cb:50:a7:9c:f1:dc:8e:89:29:
         ae:a5:02:da:2f:47:e8:29:fc:78:c9:f4:d1:39:c2:6d:b2:9a:
         34:a2:85:0c:8e:2d:c6:d5
-----BEGIN CERTIFICATE-----
MIIF7DCCA9SgAwIBAgIBBTANBgkqhkiG9w0BAQsFADBcMQswCQYDVQQGEwJERTEQ
MA4GA1UECAwHSGFtYnVyZzEUMBIGA1UECgwLaGF3LWhhbWJ1cmcxDDAKBgNVBAsM
A1NWUzEXMBUGA1UEAwwOU3ViLUNBLTI0LVVzZXIwHhcNMjIwNzAzMTkzMjIzWhcN
MjMwNjMwMTkzMjIzWjB5MQswCQYDVQQGEwJERTEQMA4GA1UECAwHSGFtYnVyZzEQ
MA4GA1UEBwwHSGFtYnVyZzEUMBIGA1UECgwLaGF3LWhhbWJ1cmcxDDAKBgNVBAsM
A1NWUzELMAkGA1UECwwCMjQxFTATBgNVBAMMDEFzZ2VyIEtyYWJiZTCCAiIwDQYJ
KoZIhvcNAQEBBQADggIPADCCAgoCggIBAL2y5Wqop5EHFysFaB8VtxFVwyPbOf9T
ajkWwD2EYu/9INECqKmSyCvPRDboNYAvrh2g9zWrnxdQAKuzJd7iBFM26vOhEkFO
49fGvOkJQezVTpdqp7/ovJKtNc1rvh1bzbKLKZOnNt72XQoG8ni12SvCtIyMA7vC
Fq+5Rns6ASKno03/W4Q0riqLS3RZG0eIVBDy+sLZvj2cHb8rFyeJbYNQqOZ20KUW
hdjJTATV8qlsJ9i1cgeVVyOp0BXip3AMH7PJSRSPIQ7hYVXLbFDR2d+YENR8hPJE
1lrg8IFKZluBpe/jFfXs7I1htiya7KuKfua1872d6XQLtqMCMkxKuxUoJocsbeIa
/YVaAusnmgosk1DKBTatoHPtac6EzmlBe4507KqIw9eUKvJ0bbNK+XpcabFaXLyx
10fLM8J4e83ouj6Fud4os7TmprQv4PqrIBiRJ2B5QvsIfWQ3s7hVY/CnHI+2Fb9d
q91CN5yqpYyKS64eYcVgin5VMyP0bDNisXEnMW1+OBlFupgw4c0blU3spsvyJUD7
Pw9VmpT6EjYJwW5JHuAaa8VLTWuvpm2jNpn1jYNKP3n8q524VgIDEC3QneOfJe5x
2ElNpduol4Hs2gPzgncfPwgdSu2CQJEZyC6rn9ExtaajuVjS6wv9YhDUdr9Thl3y
XqTrc+jN+bBpAgMBAAGjgZswgZgwDgYDVR0PAQH/BAQDAgeAMAkGA1UdEwQCMAAw
EwYDVR0lBAwwCgYIKwYBBQUHAwIwHQYDVR0OBBYEFAPXBiuVC4NCYjgfnLwKf42q
j/0JMB8GA1UdIwQYMBaAFDOvFvBqyfiTHp0NCiztNCSm5xeLMCYGA1UdEQQfMB2B
G0FzZ2VyLktyYWJiZUBoYXctaGFtYnVyZy5kZTANBgkqhkiG9w0BAQsFAAOCAgEA
X31Y4aGXmfs20GB4gf9Qk7wvv8Vnzt7OKJtgSJMYXzSfk7hTDkiXb6x8V+5sp6ac
qCmQraNCPJvPO1zfpwRkbGYIONzYHyfYoTQjhT1DzM4VaNJXANVrh1QmOdtHxld5
LjYkK7K9iVGZlXZCwDy9LHWJRVYMtn12N2r1NCOjDCkx9sdtEg9Rem/Sr3GvQ+za
rvHIDlcSK7+dtKWoC2aATIqwJbitPHwZY6X0qgsaSaBjEcGSPHXGiSl4FsvKWC4z
WsIJg8zYXv0s19Voj9SOcAr52eqDImKZr7W1xZqgqYpH3+bQVrG7rsYOhBWPlUVz
N2Y0H3BFVAZygoboRUebQ+aUHrdzQDFKm/2/webBZ43Wpgo403jcX52JP3ymRSJc
kNgyO6v3dF0dEwuuFPtg1IsKF/N+6okJQHhtKcReCo0TcudnrR6yOgOnNJtgfsHd
ssWqeegEKN2BMMXAtvYELT9Wi+Qg09cHvldWKzatSfheQ5hmBMNdnIucGdI3CyqP
N6EeIeDmwtYYLtgTTykq8gb+ek0ooa7qcJVwfP70JneUNtnzLByO1Z9Z/EJCI6Kz
KEOnUKw8h7DzP+wVM5dim6upQ7xprwz6NLG3frEDKE/IhOvckhBQEQ4bMHOPy1Cn
nPHcjokprqUC2i9H6Cn8eMn00TnCbbKaNKKFDI4txtU=
-----END CERTIFICATE-----
